(dp0
Vtopic_19
p1
(lp2
V\u0432\u0441\u0435\u043b\u0435\u043d\u043d\u0430\u044f
p3
aV\u0442\u0435\u043a\u0441\u0442
p4
aV\u043f\u0430\u043c\u044f\u0442\u044c
p5
aV\u043b\u0438\u0442\u0435\u0440\u0430\u0442\u0443\u0440\u0430
p6
aV\u043c\u0430\u0442\u0435\u0440\u0438\u044f
p7
aV\u043c\u043e\u043c\u0435\u043d\u0442
p8
aV\u043d\u0430\u0431\u043b\u044e\u0434\u0435\u043d\u0438\u0435
p9
aV\u043f\u0435\u0440\u0435\u0432\u043e\u0434
p10
aV\u043f\u0440\u043e\u0438\u0437\u0432\u0435\u0434\u0435\u043d\u0438\u0435
p11
aV\u0432\u0437\u0440\u043e\u0441\u043b\u044b\u0439
p12
aV\u0440\u043e\u0436\u0434\u0435\u043d\u0438\u0435
p13
aV\u043a\u043e\u0441\u043c\u043e\u043b\u043e\u0433\u0438\u044f
p14
aV\u043f\u043e\u043b\u044c
p15
aV\u043f\u043b\u043e\u0442\u043d\u043e\u0441\u0442\u044c
p16
aV\u0438\u0441\u0442\u043e\u0447\u043d\u0438\u043a
p17
asVtopic_18
p18
(lp19
V\u043d\u0430\u0443\u043a\u0430
p20
aV\u0433\u043e\u0440\u043e\u0434
p21
aV\u0443\u0447\u0451\u043d\u044b\u0439
p22
aV\u0441\u0432\u043e\u0431\u043e\u0434\u0430
p23
aV\u043c\u0435\u0441\u0442\u043e
p24
aV\u043f\u0440\u0438\u043d\u0446\u0438\u043f
p25
aV\u043e\u0442\u043a\u0440\u044b\u0442\u0438\u0435
p26
aV\u043b\u0435\u043a\u0446\u0438\u044f
p27
aV\u0442\u0438\u043d\u0433
p28
aV\u0440\u0435\u0433\u0443\u043b\u044f\u0446\u0438\u044f
p29
aV\u0441\u0430\u043c\u043a\u0430
p30
aV\u0441\u0430\u043c\u0435\u0446
p31
aV\u0442\u0435\u0440\u0440\u043e\u0440\u0438\u0437\u043c
p32
aV\u0430\u0440\u0445\u0438\u0442\u0435\u043a\u0442\u043e\u0440
p33
aV\u0431\u043b\u0438\u0436\u043d\u0438\u0439_\u0432\u043e\u0441\u0442\u043e\u043a
p34
asVtopic_13
p35
(lp36
V\u043e\u0431\u044a\u0435\u043a\u0442
p37
aV\u0440\u0430\u0437\u043c\u0435\u0440
p38
aV\u0442\u0435\u043b\u043e
p39
aV\u043f\u043e\u0432\u0435\u0440\u0445\u043d\u043e\u0441\u0442\u044c
p40
aV\u0441\u0432\u0435\u0442
p41
aV\u0441\u0432\u043e\u0439\u0441\u0442\u0432\u043e
p42
aV\u0441\u043a\u043e\u0440\u043e\u0441\u0442\u044c
p43
aV\u0432\u0441\u0435\u043b\u0435\u043d\u043d\u0430\u044f
p44
aV\u043f\u0440\u0438\u0440\u043e\u0434\u0430
p45
aV\u043e\u0431\u0440\u0430\u0437
p46
aV\u0440\u0435\u0437\u0443\u043b\u044c\u0442\u0430\u0442
p47
aV\u043c\u0435\u0442\u0440
p48
aV\u043e\u0442\u043a\u0440\u044b\u0442\u0438\u0435
p49
aV\u043d\u0435\u0439\u0442\u0440\u043e\u043d\u043d\u044b\u0439_\u0437\u0432\u0435\u0437\u0434\u0430
p50
aV\u043f\u043e\u0441\u043b\u0435\u0434\u043e\u0432\u0430\u0442\u0435\u043b\u044c\u043d\u043e\u0441\u0442\u044c
p51
asVtopic_12
p52
(lp53
V\u043c\u043e\u0437\u0433
p54
aV\u0438\u0441\u0441\u043b\u0435\u0434\u043e\u0432\u0430\u043d\u0438\u0435
p55
aV\u043c\u0430\u0442\u0435\u0440\u0438\u0430\u043b
p56
aV\u043c\u0435\u0442\u043e\u0434
p57
aV\u043e\u0431\u0440\u0430\u0437
p58
aV\u0432\u0438\u0434
p59
aV\u043f\u0440\u043e\u0446\u0435\u0441\u0441
p60
aV\u043e\u0431\u043b\u0430\u0441\u0442\u044c
p61
aV\u0432\u043e\u043f\u0440\u043e\u0441
p62
aV\u043f\u043e\u0432\u0435\u0434\u0435\u043d\u0438\u0435
p63
aV\u0441\u0432\u044f\u0437\u044c
p64
aV\u0440\u0430\u0431\u043e\u0442\u0430
p65
aV\u043f\u0440\u043e\u0431\u043b\u0435\u043c\u0430
p66
aV\u0438\u043d\u0444\u043e\u0440\u043c\u0430\u0446\u0438\u044f
p67
aV\u043f\u043e\u043c\u043e\u0449\u044c
p68
asVtopic_11
p69
(lp70
V\u043a\u043d\u0438\u0433\u0430
p71
aV\u043c\u0435\u0442\u0440
p72
aV\u0430\u0432\u0442\u043e\u0440
p73
aV\u0438\u0441\u0442\u043e\u0440\u0438\u044f
p74
aV\u0440\u0430\u0431\u043e\u0442\u0430
p75
aV\u0432\u0437\u0433\u043b\u044f\u0434
p76
aV\u0438\u0441\u0442\u043e\u0440\u0438\u043a
p77
aV\u043a\u0443\u043b\u044c\u0442\u0443\u0440\u0430
p78
aV\u0442\u0438\u043d\u0433
p79
aV\u0440\u0435\u0433\u0443\u043b\u044f\u0446\u0438\u044f
p80
aV\u0441\u0430\u043c\u043a\u0430
p81
aV\u0441\u0430\u043c\u0435\u0446
p82
aV\u0442\u0435\u0440\u0440\u043e\u0440\u0438\u0437\u043c
p83
aV\u0430\u0440\u0445\u0438\u0442\u0435\u043a\u0442\u043e\u0440
p84
aV\u0431\u043b\u0438\u0436\u043d\u0438\u0439_\u0432\u043e\u0441\u0442\u043e\u043a
p85
asVtopic_10
p86
(lp87
V\u0437\u0435\u043c\u043b\u044f
p88
aV\u0437\u0432\u0435\u0437\u0434\u0430
p89
aV\u0441\u043e\u043b\u043d\u0446\u0435
p90
aV\u043f\u043b\u0430\u043d\u0435\u0442\u0430
p91
aV\u0436\u0438\u0437\u043d\u044c
p92
aV\u0430\u0442\u043c\u043e\u0441\u0444\u0435\u0440\u0430
p93
aV\u0441\u043e\u0441\u0442\u043e\u044f\u043d\u0438\u0435
p94
aV\u043f\u043b\u0430\u043d\u0435\u0442
p95
aV\u0442\u0435\u043b\u0435\u0441\u043a\u043e\u043f
p96
aV\u0442\u0435\u043c\u043f\u0435\u0440\u0430\u0442\u0443\u0440\u0430
p97
aV\u0432\u0435\u0449\u0435\u0441\u0442\u0432\u043e
p98
aV\u0433\u0430\u043b\u0430\u043a\u0442\u0438\u043a\u0430
p99
aV\u0441\u043f\u0443\u0442\u043d\u0438\u043a
p100
aV\u043e\u0440\u0431\u0438\u0442\u0430
p101
aV\u0432\u043e\u0434\u0430
p102
asVtopic_17
p103
(lp104
V\u043a\u043b\u0435\u0442\u043a\u0430
p105
aV\u0433\u0435\u043d
p106
aV\u043e\u0440\u0433\u0430\u043d\u0438\u0437\u043c
p107
aV\u043c\u043e\u043b\u0435\u043a\u0443\u043b\u0430
p108
aV\u0431\u0435\u043b\u043a\u0430
p109
aV\u0434\u043d\u043a
p110
aV\u0431\u0430\u043a\u0442\u0435\u0440\u0438\u044f
p111
aV\u0431\u0435\u043b\u043e\u043a
p112
aV\u0442\u0435\u0445\u043d\u043e\u043b\u043e\u0433\u0438\u044f
p113
aV\u0433\u0435\u043d\u043e\u043c
p114
aV\u043e\u0431\u0440\u0430\u0437
p115
aV\u043f\u0440\u043e\u0446\u0435\u0441\u0441
p116
aV\u0432\u0438\u0440\u0443\u0441
p117
aV\u0441\u0438\u0441\u0442\u0435\u043c\u0430
p118
aV\u0441\u043e\u0431\u044b\u0442\u0438\u0435
p119
asVtopic_16
p120
(lp121
V\u0436\u0435\u043d\u0449\u0438\u043d\u0430
p122
aV\u043c\u0443\u0436\u0447\u0438\u043d\u0430
p123
aV\u043c\u0443\u0437\u0435\u0439
p124
aV\u0433\u043b\u0430\u0437
p125
aV\u043f\u0438\u0441\u044c\u043c\u043e
p126
aV\u043d\u0430\u0441\u0438\u043b\u0438\u0435
p127
aV\u0434\u043e\u043c
p128
aV\u0433\u0435\u0440\u043e\u0439
p129
aV\u0445\u043e\u0434
p130
aV\u043b\u0438\u0446\u043e
p131
aV\u0447\u0430\u0449\u0430
p132
aV\u0440\u0435\u0431\u0451\u043d\u043e\u043a
p133
aV\u0441\u044e\u0436\u0435\u0442
p134
aV\u0432\u0430\u0440\u0438\u0430\u043d\u0442
p135
aV\u0442\u0438\u043d\u0433
p136
asVtopic_15
p137
(lp138
V\u0441\u0438\u0441\u0442\u0435\u043c\u0430
p139
aV\u0440\u0430\u0431\u043e\u0442\u0430
p140
aV\u0437\u0430\u0434\u0430\u0447\u0430
p141
aV\u0444\u0438\u043b\u044c\u043c
p142
aV\u0448\u043a\u043e\u043b\u0430
p143
aV\u043e\u0431\u0440\u0430\u0437\u043e\u0432\u0430\u043d\u0438\u0435
p144
aV\u043f\u0440\u043e\u0431\u043b\u0435\u043c\u0430
p145
aV\u0441\u0442\u0430\u0442\u044c\u044f
p146
aV\u0442\u0435\u043c\u0430
p147
aV\u043a\u043e\u043c\u043f\u044c\u044e\u0442\u0435\u0440
p148
aV\u043f\u0440\u043e\u0433\u0440\u0430\u043c\u043c\u0430
p149
aV\u0430\u0432\u0442\u043e\u0440
p150
aV\u0442\u043e\u0447\u043a\u0430_\u0437\u0440\u0435\u043d\u0438\u0435
p151
aV\u0432\u043e\u043f\u0440\u043e\u0441
p152
aV\u0436\u0443\u0440\u043d\u0430\u043b
p153
asVtopic_14
p154
(lp155
V\u044f\u0437\u044b\u043a
p156
aV\u0441\u043b\u043e\u0432\u043e
p157
aV\u0440\u0443\u0441\u0441\u043a\u0438\u0439_\u044f\u0437\u044b\u043a
p158
aV\u043b\u0438\u043d\u0433\u0432\u0438\u0441\u0442
p159
aV\u0437\u043d\u0430\u0447\u0435\u043d\u0438\u0435
p160
aV\u0444\u043e\u0440\u043c\u0430
p161
aV\u0433\u043b\u0430\u0433\u043e\u043b
p162
aV\u0442\u0435\u043a\u0441\u0442
p163
aV\u0442\u0438\u043f
p164
aV\u043d\u0430\u0437\u0432\u0430\u043d\u0438\u0435
p165
aV\u0430\u0434\u0440\u043e\u043d
p166
aV\u0434\u0438\u0430\u043b\u0435\u043a\u0442
p167
aV\u043e\u0431\u044a\u0435\u043a\u0442
p168
aV\u043c\u0435\u0437\u043e\u043d
p169
aV\u043d\u0430\u0443\u043a\u0430
p170
asVtopic_7
p171
(lp172
V\u0441\u0442\u0440\u0430\u043d\u0430
p173
aV\u0442\u0440\u0430\u0434\u0438\u0446\u0438\u044f
p174
aV\u043a\u0438\u0442\u0430\u0439
p175
aV\u0441\u0442\u043e\u0440\u043e\u043d\u0430
p176
aV\u0442\u0435\u0440\u0440\u0438\u0442\u043e\u0440\u0438\u044f
p177
aV\u0435\u0432\u0440\u043e\u043f\u0430
p178
aV\u043c\u0435\u0441\u0442\u043e
p179
aV\u043d\u0430\u0441\u0435\u043b\u0435\u043d\u0438\u0435
p180
aV\u0438\u043c\u044f
p181
aV\u043f\u0435\u0440\u0438\u043e\u0434
p182
aV\u043a\u043d\u0438\u0433\u0430
p183
aV\u0431\u0443\u043a\u0432\u0430
p184
aV\u0447\u0430\u0441\u0442\u044c
p185
aV\u044f\u0437\u044b\u043a
p186
aV\u0441\u043b\u043e\u0432\u043e
p187
asVtopic_6
p188
(lp189
V\u0433\u043e\u0441\u0443\u0434\u0430\u0440\u0441\u0442\u0432\u043e
p190
aV\u043a\u0443\u043b\u044c\u0442\u0443\u0440\u0430
p191
aV\u0440\u043e\u0441\u0441\u0438\u044f
p192
aV\u0432\u043e\u0439\u043d\u0430
p193
aV\u0443\u043d\u0438\u0432\u0435\u0440\u0441\u0438\u0442\u0435\u0442
p194
aV\u0438\u0441\u0442\u043e\u0440\u0438\u044f
p195
aV\u0441\u0442\u0440\u0430\u043d\u0430
p196
aV\u043e\u0431\u0449\u0435\u0441\u0442\u0432\u043e
p197
aV\u043f\u043e\u043b\u0438\u0442\u0438\u043a\u0430
p198
aV\u0441\u0442\u043e\u0440\u043e\u043d\u0430
p199
aV\u0432\u043b\u0430\u0441\u0442\u044c
p200
aV\u043e\u0442\u043d\u043e\u0448\u0435\u043d\u0438\u0435
p201
aV\u0433\u0435\u0440\u043c\u0430\u043d\u0438\u044f
p202
aV\u0438\u0441\u043a\u0443\u0441\u0441\u0442\u0432\u043e
p203
aV\u043f\u0440\u043e\u0448\u043b\u043e\u0435
p204
asVtopic_5
p205
(lp206
V\u0438\u043c\u044f
p207
aV\u0438\u0441\u0442\u043e\u0440\u0438\u044f
p208
aV\u0434\u0440\u0443\u0433
p209
aV\u0432\u043b\u0430\u0441\u0442\u044c
p210
aV\u0431\u043e\u0433
p211
aV\u043f\u0440\u0435\u0434\u0441\u0442\u0430\u0432\u043b\u0435\u043d\u0438\u0435
p212
aV\u0440\u0435\u0432\u043e\u043b\u044e\u0446\u0438\u044f
p213
aV\u0436\u0438\u0437\u043d\u044c
p214
aV\u043a\u043e\u0440\u043e\u043b\u044c
p215
aV\u043c\u0438\u0444
p216
aV\u0444\u0440\u0430\u043d\u0446\u0438\u044f
p217
aV\u043e\u0441\u0442\u0440\u043e\u0432
p218
aV\u044d\u043f\u043e\u0445\u0430
p219
aV\u043e\u0431\u0440\u0430\u0437
p220
aV\u0438\u0441\u0442\u043e\u0440\u0438\u043a
p221
asVtopic_4
p222
(lp223
V\u0442\u0435\u043e\u0440\u0438\u044f
p224
aV\u043f\u043e\u043d\u044f\u0442\u0438\u0435
p225
aV\u043e\u0442\u043d\u043e\u0448\u0435\u043d\u0438\u0435
p226
aV\u0441\u043e\u0446\u0438\u043e\u043b\u043e\u0433\u0438\u044f
p227
aV\u0441\u043e\u0431\u044b\u0442\u0438\u0435
p228
aV\u0441\u043e\u043e\u0431\u0449\u0435\u0441\u0442\u0432\u043e
p229
aV\u043a\u043e\u043d\u0446\u0435\u043f\u0446\u0438\u044f
p230
aV\u0441\u043c\u044b\u0441\u043b
p231
aV\u0438\u0434\u0435\u044f
p232
aV\u0441\u043e\u0446\u0438\u043e\u043b\u043e\u0433
p233
aV\u0442\u0435\u0440\u043c\u0438\u043d
p234
aV\u0430\u043d\u0430\u043b\u0438\u0437
p235
aV\u043f\u0440\u0430\u043a\u0442\u0438\u043a\u0430
p236
aV\u043a\u0443\u0440\u0441
p237
aV\u043e\u043f\u0440\u0435\u0434\u0435\u043b\u0435\u043d\u0438\u0435
p238
asVtopic_3
p239
(lp240
V\u044d\u043a\u043e\u043d\u043e\u043c\u0438\u043a\u0430
p241
aV\u0441\u0442\u0440\u0430\u043d\u0430
p242
aV\u0434\u0435\u043d\u044c\u0433\u0430
p243
aV\u0441\u0448\u0430
p244
aV\u0446\u0435\u043d\u0430
p245
aV\u0440\u044b\u043d\u043e\u043a
p246
aV\u043b\u0435\u043a\u0446\u0438\u044f
p247
aV\u043a\u0440\u0438\u0437\u0438\u0441
p248
aV\u044d\u043a\u043e\u043d\u043e\u043c\u0438\u0441\u0442
p249
aV\u0444\u0438\u043b\u043e\u0441\u043e\u0444\u0438\u044f
p250
aV\u0440\u043e\u0441\u0442
p251
aV\u0438\u0441\u0442\u043e\u0440\u0438\u044f
p252
aV\u0434\u043e\u0445\u043e\u0434
p253
aV\u043f\u0440\u0438\u0447\u0438\u043d\u0430
p254
aV\u043c\u0435\u0441\u0442\u043e
p255
asVtopic_2
p256
(lp257
V\u0447\u0430\u0441\u0442\u0438\u0446\u0430
p258
aV\u044d\u043d\u0435\u0440\u0433\u0438\u044f
p259
aV\u043a\u0432\u0430\u0440\u043a
p260
aV\u044d\u043a\u0441\u043f\u0435\u0440\u0438\u043c\u0435\u043d\u0442
p261
aV\u044d\u043b\u0435\u043a\u0442\u0440\u043e\u043d
p262
aV\u0444\u0438\u0437\u0438\u043a\u0430
p263
aV\u0444\u043e\u0442\u043e\u043d
p264
aV\u043c\u0430\u0441\u0441\u0430
p265
aV\u0444\u0438\u0437\u0438\u043a
p266
aV\u0441\u0438\u043c\u043c\u0435\u0442\u0440\u0438\u044f
p267
aV\u0430\u0442\u043e\u043c
p268
aV\u0442\u0435\u043e\u0440\u0438\u044f
p269
aV\u043f\u0440\u043e\u0442\u043e\u043d
p270
aV\u044f\u0434\u0440\u043e
p271
aV\u044d\u0439\u043d\u0448\u0442\u0435\u0439\u043d
p272
asVtopic_1
p273
(lp274
V\u043f\u0440\u0430\u0432\u043e
p275
aV\u0437\u0430\u043a\u043e\u043d
p276
aV\u0441\u0438\u0442\u0443\u0430\u0446\u0438\u044f
p277
aV\u043e\u0431\u0449\u0435\u0441\u0442\u0432\u043e
p278
aV\u0440\u0435\u0448\u0435\u043d\u0438\u0435
p279
aV\u0432\u043e\u043f\u0440\u043e\u0441
p280
aV\u0440\u0430\u0431\u043e\u0442\u0430
p281
aV\u0441\u0442\u043e\u0440\u043e\u043d\u0430
p282
aV\u0440\u0435\u0437\u0443\u043b\u044c\u0442\u0430\u0442
p283
aV\u043f\u0440\u043e\u0431\u043b\u0435\u043c\u0430
p284
aV\u0444\u0443\u043d\u043a\u0446\u0438\u044f
p285
aV\u043f\u0440\u0430\u0432\u0438\u043b\u043e
p286
aV\u043f\u0440\u043e\u0435\u043a\u0442
p287
aV\u0441\u043b\u0443\u0447\u0430\u0439
p288
aV\u0443\u0441\u043b\u043e\u0432\u0438\u0435
p289
asVtopic_0
p290
(lp291
V\u0440\u0435\u0431\u0451\u043d\u043e\u043a
p292
aV\u0441\u0435\u043c\u044c\u044f
p293
aV\u0441\u0430\u043c\u0435\u0446
p294
aV\u043f\u0442\u0438\u0446\u0430
p295
aV\u0441\u0430\u043c\u043a\u0430
p296
aV\u043c\u0438\u043a\u0440\u043e\u043e\u0440\u0433\u0430\u043d\u0438\u0437\u043c
p297
aV\u0440\u043e\u0434\u0438\u0442\u0435\u043b\u044c
p298
aV\u0432\u0438\u0434
p299
aV\u0436\u0438\u0437\u043d\u044c
p300
aV\u043c\u0443\u0442\u0430\u0446\u0438\u044f
p301
aV\u0448\u0438\u043c\u043f\u0430\u043d\u0437\u0435
p302
aV\u044d\u0432\u043e\u043b\u044e\u0446\u0438\u044f
p303
aV\u0441\u0438\u0433\u043d\u0430\u043b
p304
aV\u0440\u044b\u0431\u0430
p305
aV\u0442\u043a\u0430\u043d\u044c
p306
asVtopic_9
p307
(lp308
V\u0433\u0430\u043b\u0430\u043a\u0442\u0438\u043a\u0430
p309
aV\u043f\u0430\u0446\u0438\u0435\u043d\u0442
p310
aV\u0447\u0451\u0440\u043d\u044b\u0439_\u0434\u044b\u0440\u0430
p311
aV\u0440\u0430\u0441\u0442\u0435\u043d\u0438\u0435
p312
aV\u0432\u0440\u0430\u0447
p313
aV\u0437\u0430\u0431\u043e\u043b\u0435\u0432\u0430\u043d\u0438\u0435
p314
aV\u0431\u043e\u043b\u0435\u0437\u043d\u044c
p315
aV\u0437\u0432\u0435\u0437\u0434\u0430
p316
aV\u043c\u0435\u0434\u0438\u0446\u0438\u043d\u0430
p317
aV\u043f\u0440\u0435\u043f\u0430\u0440\u0430\u0442
p318
aV\u0440\u043e\u0431\u043e\u0442
p319
aV\u0434\u0435\u0440\u0435\u0432\u043e
p320
aV\u043b\u0435\u0447\u0435\u043d\u0438\u0435
p321
aV\u043d\u0430\u0440\u0443\u0448\u0435\u043d\u0438\u0435
p322
aV\u0434\u0438\u0441\u043a
p323
asVtopic_8
p324
(lp325
V\u043f\u0440\u043e\u0441\u0442\u0440\u0430\u043d\u0441\u0442\u0432\u043e
p326
aV\u043c\u043e\u0434\u0435\u043b\u044c
p327
aV\u0437\u043d\u0430\u043d\u0438\u0435
p328
aV\u043f\u0440\u0435\u0434\u0441\u0442\u0430\u0432\u043b\u0435\u043d\u0438\u0435
p329
aV\u0434\u0432\u0438\u0436\u0435\u043d\u0438\u0435
p330
aV\u0437\u043d\u0430\u0447\u0435\u043d\u0438\u0435
p331
aV\u0440\u0430\u043c\u043a\u0430
p332
aV\u0442\u043e\u0447\u043a\u0430
p333
aV\u043a\u0430\u0447\u0435\u0441\u0442\u0432\u043e
p334
aV\u043a\u0430\u0442\u0435\u0433\u043e\u0440\u0438\u044f
p335
aV\u0438\u0437\u043c\u0435\u043d\u0435\u043d\u0438\u0435
p336
aV\u0438\u0434\u0435\u043d\u0442\u0438\u0447\u043d\u043e\u0441\u0442\u044c
p337
aV\u0446\u0435\u043b\u043e\u0435
p338
aV\u0442\u043e\u0447\u043a\u0430_\u0437\u0440\u0435\u043d\u0438\u0435
p339
aV\u043e\u0431\u0449\u0435\u0441\u0442\u0432\u043e
p340
as.