(dp0
Vtopic_68
p1
(lp2
V\u043c\u043e\u0441\u043a\u0432\u0430
p3
aV\u0446\u0435\u043d\u0442\u0440
p4
aV\u0440\u0430\u0437\u0432\u0438\u0442\u0438\u0435
p5
aV\u0440\u0430\u0439\u043e\u043d
p6
aV\u0442\u0435\u0440\u0440\u0438\u0442\u043e\u0440\u0438\u044f
p7
aV\u043f\u043e\u044f\u0432\u043b\u0435\u043d\u0438\u0435
p8
aV\u0446\u0435\u043b\u043e\u0435
p9
aV\u043a\u043e\u043c\u043f\u043b\u0435\u043a\u0441
p10
aV\u043e\u0441\u043e\u0431\u0435\u043d\u043d\u043e\u0441\u0442\u044c
p11
aV\u0447\u0438\u0441\u043b\u043e
p12
aV\u043d\u043e\u0432\u043e\u0435
p13
aV\u0440\u0435\u0437\u0443\u043b\u044c\u0442\u0430\u0442
p14
aV\u0441\u0432\u044f\u0437\u044c
p15
aV\u0438\u043d\u0434\u0438\u044f
p16
aV\u0444\u043e\u0440\u043c\u0438\u0440\u043e\u0432\u0430\u043d\u0438\u0435
p17
asVtopic_69
p18
(lp19
V\u043a\u043e\u043c\u043c\u0443\u043d\u0438\u043a\u0430\u0446\u0438\u044f
p20
aV\u043e\u0431\u0440\u0430\u0437
p21
aV\u0441\u043e\u043e\u0431\u0449\u0435\u043d\u0438\u0435
p22
aV\u043f\u043e\u043c\u043e\u0449\u044c
p23
aV\u0436\u0435\u043b\u0430\u043d\u0438\u0435
p24
aV\u0438\u0437\u043e\u0431\u0440\u0430\u0436\u0435\u043d\u0438\u0435
p25
aV\u043f\u0440\u0438\u043c\u0435\u0440
p26
aV\u043a\u043e\u043d\u0442\u0430\u043a\u0442
p27
aV\u0440\u0443\u043a\u0430
p28
aV\u043a\u043e\u0434
p29
aV\u043c\u044b\u0441\u043b\u044c
p30
aV\u043d\u0430\u043c\u0435\u0440\u0435\u043d\u0438\u0435
p31
aV\u0440\u0435\u0447\u044c
p32
aV\u0434\u0432\u0438\u0436\u0435\u043d\u0438\u0435
p33
aV\u0437\u0430\u0432\u0438\u0441\u0438\u043c\u043e\u0441\u0442\u044c
p34
asVtopic_62
p35
(lp36
V\u0432\u043b\u0430\u0441\u0442\u044c
p37
aV\u043d\u0430\u0440\u043e\u0434
p38
aV\u0441\u0438\u043b\u0430
p39
aV\u0446\u0435\u0440\u043a\u043e\u0432\u044c
p40
aV\u0436\u0435\u0440\u0442\u0432\u0430
p41
aV\u0431\u0440\u0430\u0442
p42
aV\u0438\u043c\u044f
p43
aV\u0447\u0430\u0441\u0442\u043d\u043e\u0441\u0442\u044c
p44
aV\u043a\u043e\u043b\u043e\u043d\u0438\u044f
p45
aV\u0438\u0434\u0435\u044f
p46
aV\u043f\u043e\u0440\u044f\u0434\u043e\u043a
p47
aV\u043e\u0431\u0449\u0438\u043d\u0430
p48
aV\u0440\u0435\u0436\u0438\u043c
p49
aV\u0441\u0438\u0431\u0438\u0440\u044c
p50
aV\u0434\u0435\u0439\u0441\u0442\u0432\u0438\u0435
p51
asVtopic_63
p52
(lp53
V\u044d\u043a\u043e\u043d\u043e\u043c\u0438\u043a\u0430
p54
aV\u0434\u0435\u043d\u044c\u0433\u0430
p55
aV\u0441\u0448\u0430
p56
aV\u0441\u0442\u0440\u0430\u043d\u0430
p57
aV\u0446\u0435\u043d\u0430
p58
aV\u0440\u044b\u043d\u043e\u043a
p59
aV\u043a\u0440\u0438\u0437\u0438\u0441
p60
aV\u044d\u043a\u043e\u043d\u043e\u043c\u0438\u0441\u0442
p61
aV\u0440\u043e\u0441\u0442
p62
aV\u0434\u043e\u0445\u043e\u0434
p63
aV\u0442\u043e\u0432\u0430\u0440
p64
aV\u043f\u0440\u043e\u0446\u0435\u043d\u0442
p65
aV\u0434\u043e\u043b\u043b\u0430\u0440
p66
aV\u0441\u0438\u0442\u0443\u0430\u0446\u0438\u044f
p67
aV\u0440\u0430\u0431\u043e\u0442\u0430
p68
asVtopic_60
p69
(lp70
V\u0433\u0435\u0440\u043c\u0430\u043d\u0438\u044f
p71
aV\u0441\u0442\u0430\u043b\u0438\u043d
p72
aV\u043f\u0440\u0430\u0432\u0438\u0442\u0435\u043b\u044c\u0441\u0442\u0432\u043e
p73
aV\u043f\u043e\u043b\u0438\u0442\u0438\u043a\u0430
p74
aV\u0440\u0430\u0431\u043e\u0447\u0438\u0439
p75
aV\u0434\u0435\u043c\u043e\u043a\u0440\u0430\u0442\u0438\u044f
p76
aV\u043f\u0435\u0440\u0438\u043e\u0434
p77
aV\u0441\u0442\u0440\u0430\u043d\u0430
p78
aV\u0432\u043b\u0430\u0441\u0442\u044c
p79
aV\u043a\u043e\u043d\u0435\u0446
p80
aV\u0441\u0438\u043b\u0430
p81
aV\u043f\u0440\u0435\u0437\u0438\u0434\u0435\u043d\u0442
p82
aV\u043d\u0435\u0440\u0430\u0432\u0435\u043d\u0441\u0442\u0432\u043e
p83
aV\u0438\u0433\u0440\u0443\u0448\u043a\u0430
p84
aV\u043d\u0435\u043c\u0435\u0446
p85
asVtopic_61
p86
(lp87
V\u0432\u043e\u0439\u043d\u0430
p88
aV\u0441\u0442\u0440\u0430\u043d\u0430
p89
aV\u043c\u0438\u0440\u043e\u0432\u043e\u0439_\u0432\u043e\u0439\u043d\u0430
p90
aV\u0432\u043e\u0435\u043d\u043d\u044b\u0439
p91
aV\u0440\u0435\u0444\u043e\u0440\u043c\u0430
p92
aV\u0433\u043e\u0441\u0443\u0434\u0430\u0440\u0441\u0442\u0432\u043e
p93
aV\u0433\u0440\u0430\u0436\u0434\u0430\u043d\u0438\u043d
p94
aV\u043f\u043e\u043b\u0438\u0442\u0438\u043a\u0430
p95
aV\u0448\u0442\u0430\u0442
p96
aV\u0432\u043b\u0430\u0441\u0442\u044c
p97
aV\u0431\u043e\u0440\u044c\u0431\u0430
p98
aV\u0433\u0440\u0430\u0436\u0434\u0430\u043d\u0441\u043a\u0438\u0439_\u0432\u043e\u0439\u043d\u0430
p99
aV\u0441\u0442\u043e\u0440\u043e\u043d\u0430
p100
aV\u043f\u0440\u0438\u043d\u0446\u0438\u043f
p101
aV\u0443\u0437\u0435\u043b
p102
asVtopic_66
p103
(lp104
V\u043f\u0440\u043e\u0435\u043a\u0442
p105
aV\u0432\u044b\u0431\u043e\u0440
p106
aV\u043e\u0440\u0433\u0430\u043d\u0438\u0437\u0430\u0446\u0438\u044f
p107
aV\u0438\u043d\u0441\u0442\u0438\u0442\u0443\u0442
p108
aV\u043f\u0440\u043e\u0446\u0435\u0434\u0443\u0440\u0430
p109
aV\u0441\u0442\u043e\u0440\u043e\u043d\u0430
p110
aV\u0434\u0435\u044f\u0442\u0435\u043b\u044c\u043d\u043e\u0441\u0442\u044c
p111
aV\u043f\u0430\u0440\u0442\u0438\u044f
p112
aV\u0433\u0440\u0443\u043f\u043f\u0430
p113
aV\u0434\u0435\u043d\u044c\u0433\u0430
p114
aV\u0432\u043e\u0437\u043c\u043e\u0436\u043d\u043e\u0441\u0442\u044c
p115
aV\u0438\u0441\u0441\u043b\u0435\u0434\u043e\u0432\u0430\u043d\u0438\u0435
p116
aV\u043f\u0440\u0430\u0432\u0438\u043b\u043e
p117
aV\u0441\u043e\u0442\u0440\u0443\u0434\u043d\u0438\u043a
p118
aV\u043f\u0440\u043e\u0431\u043b\u0435\u043c\u0430
p119
asVtopic_67
p120
(lp121
V\u044d\u043b\u0435\u043c\u0435\u043d\u0442
p122
aV\u043e\u0431\u043b\u0430\u0441\u0442\u044c
p123
aV\u0438\u0434\u0435\u044f
p124
aV\u043e\u0441\u043d\u043e\u0432\u0430
p125
aV\u0436\u0438\u0437\u043d\u044c
p126
aV\u043d\u0430\u043f\u0440\u0430\u0432\u043b\u0435\u043d\u0438\u0435
p127
aV\u0440\u0435\u0437\u0443\u043b\u044c\u0442\u0430\u0442
p128
aV\u043f\u0440\u043e\u0441\u0442\u043e\u0439
p129
aV\u0432\u0438\u0434
p130
aV\u043f\u0440\u0438\u0440\u043e\u0434\u0430
p131
aV\u0446\u0435\u043b\u043e\u0435
p132
aV\u043f\u0440\u043e\u0431\u043b\u0435\u043c\u0430
p133
aV\u0440\u0430\u0431\u043e\u0442\u0430
p134
aV\u0434\u0440\u0443\u0433
p135
aV\u0441\u0442\u0440\u0443\u043a\u0442\u0443\u0440\u0430
p136
asVtopic_64
p137
(lp138
V\u0441\u0438\u043c\u0432\u043e\u043b
p139
aV\u0441\u0442\u0438\u043b\u044c
p140
aV\u0441\u043e\u043c\u043d\u0435\u043d\u0438\u0435
p141
aV\u043c\u043d\u0435\u043d\u0438\u0435
p142
aV\u043b\u0438\u0434\u0435\u0440
p143
aV\u0438\u0434\u0435\u044f
p144
aV\u0432\u043f\u0435\u0447\u0430\u0442\u043b\u0435\u043d\u0438\u0435
p145
aV\u0440\u0438\u0442\u043e\u0440\u0438\u043a\u0430
p146
aV\u043f\u044c\u0435\u0441\u0430
p147
aV\u043f\u0443\u0431\u043b\u0438\u043a\u0430
p148
aV\u0438\u043c\u044f
p149
aV\u0444\u0430\u043a\u0442
p150
aV\u0432\u043b\u0430\u0434\u0435\u043d\u0438\u0435
p151
aV\u0433\u0430\u043b\u0438\u043b\u044f
p152
aV\u0441\u043b\u043e\u0432\u043e
p153
asVtopic_65
p154
(lp155
V\u0447\u0443\u0432\u0441\u0442\u0432\u043e
p156
aV\u044d\u043c\u043e\u0446\u0438\u044f
p157
aV\u043d\u043e\u0440\u043c\u0430
p158
aV\u043e\u0449\u0443\u0449\u0435\u043d\u0438\u0435
p159
aV\u043f\u0440\u043e\u0431\u043b\u0435\u043c\u0430
p160
aV\u043e\u0431\u0440\u0430\u0437
p161
aV\u0443\u0440\u043e\u0432\u0435\u043d\u044c
p162
aV\u043f\u043e\u0442\u0440\u0435\u0431\u043b\u0435\u043d\u0438\u0435
p163
aV\u0441\u0438\u0442\u0443\u0430\u0446\u0438\u044f
p164
aV\u043f\u0440\u0438\u0447\u0438\u043d\u0430
p165
aV\u043f\u043e\u0441\u0442\u0443\u043f\u043e\u043a
p166
aV\u043f\u043e\u0441\u043b\u0435\u0434\u0441\u0442\u0432\u0438\u0435
p167
aV\u043d\u0430\u043f\u0440\u044f\u0436\u0435\u043d\u0438\u0435
p168
aV\u043c\u043e\u043b\u043e\u0434\u0430\u044f
p169
aV\u0437\u043d\u0430\u0447\u0438\u0442\u0435\u043b\u044c\u043d\u044b\u0439_\u0441\u0442\u0435\u043f\u0435\u043d\u044c
p170
asVtopic_79
p171
(lp172
V\u0447\u0430\u0441\u0442\u0438\u0446\u0430
p173
aV\u044d\u043a\u0441\u043f\u0435\u0440\u0438\u043c\u0435\u043d\u0442
p174
aV\u0444\u043e\u0442\u043e\u043d
p175
aV\u0444\u0438\u0437\u0438\u043a\u0430
p176
aV\u0444\u0438\u0437\u0438\u043a
p177
aV\u044d\u0439\u043d\u0448\u0442\u0435\u0439\u043d
p178
aV\u043d\u0435\u0439\u0442\u0440\u0438\u043d\u043e
p179
aV\u044d\u043b\u0435\u043c\u0435\u043d\u0442\u0430\u0440\u043d\u044b\u0439_\u0447\u0430\u0441\u0442\u0438\u0446\u0430
p180
aV\u0434\u0435\u0442\u0435\u043a\u0442\u043e\u0440
p181
aV\u044d\u043b\u0435\u043a\u0442\u0440\u043e\u043d
p182
aV\u0433\u0438\u043f\u043e\u0442\u0435\u0437\u0430
p183
aV\u0440\u0435\u0437\u0443\u043b\u044c\u0442\u0430\u0442
p184
aV\u0432\u043e\u043f\u0440\u043e\u0441
p185
aV\u043f\u0440\u0435\u043c\u0438\u044f
p186
aV\u043b\u0451\u0434
p187
asVtopic_78
p188
(lp189
V\u043c\u0435\u0440\u0430
p190
aV\u043d\u0430\u043b\u0438\u0447\u0438\u0435
p191
aV\u044d\u0444\u0444\u0435\u043a\u0442
p192
aV\u043f\u043e\u043a\u0430\u0437\u0430\u0442\u0435\u043b\u044c
p193
aV\u0430\u043d\u0430\u043b\u0438\u0437
p194
aV\u043f\u043e\u0442\u0440\u0435\u0431\u043d\u043e\u0441\u0442\u044c
p195
aV\u043f\u0440\u043e\u0441\u0442\u043e\u0439
p196
aV\u0444\u0430\u043a\u0442\u043e\u0440
p197
aV\u043a\u043e\u043b\u0438\u0447\u0435\u0441\u0442\u0432\u043e
p198
aV\u0441\u0442\u0435\u043f\u0435\u043d\u044c
p199
aV\u044d\u0444\u0444\u0435\u043a\u0442\u0438\u0432\u043d\u043e\u0441\u0442\u044c
p200
aV\u043e\u0448\u0438\u0431\u043a\u0430
p201
aV\u0441\u0442\u0430\u0442\u0438\u0441\u0442\u0438\u043a\u0430
p202
aV\u043e\u0447\u0435\u0440\u0435\u0434\u044c
p203
aV\u043f\u0440\u0430\u0432\u0438\u043b\u043e
p204
asVtopic_75
p205
(lp206
V\u043c\u0435\u0442\u043e\u0434
p207
aV\u043c\u0430\u0442\u0435\u0440\u0438\u0430\u043b
p208
aV\u0441\u0442\u0440\u0443\u043a\u0442\u0443\u0440\u0430
p209
aV\u0441\u043e\u0435\u0434\u0438\u043d\u0435\u043d\u0438\u0435
p210
aV\u0440\u0435\u0430\u043a\u0446\u0438\u044f
p211
aV\u0432\u0435\u0449\u0435\u0441\u0442\u0432\u043e
p212
aV\u0441\u0432\u043e\u0439\u0441\u0442\u0432\u043e
p213
aV\u0438\u0441\u0441\u043b\u0435\u0434\u043e\u0432\u0430\u043d\u0438\u0435
p214
aV\u043f\u0440\u043e\u0446\u0435\u0441\u0441
p215
aV\u043f\u0440\u0438\u043c\u0435\u043d\u0435\u043d\u0438\u0435
p216
aV\u043a\u0440\u0438\u0441\u0442\u0430\u043b\u043b
p217
aV\u0441\u0438\u043d\u0442\u0435\u0437
p218
aV\u043f\u043e\u043c\u043e\u0449\u044c
p219
aV\u043e\u0431\u0440\u0430\u0437
p220
aV\u0441\u043e\u0437\u0434\u0430\u043d\u0438\u0435
p221
asVtopic_74
p222
(lp223
V\u0441\u0432\u0435\u0442
p224
aV\u0440\u0430\u0437\u043c\u0435\u0440
p225
aV\u0441\u0430\u043d\u0442\u0438\u043c\u0435\u0442\u0440
p226
aV\u0440\u0438\u0441
p227
aV\u0438\u0441\u0442\u043e\u0447\u043d\u0438\u043a
p228
aV\u043c\u0438\u043b\u043b\u0438\u0430\u0440\u0434
p229
aV\u043c\u0438\u043b\u043b\u0438\u043e\u043d
p230
aV\u0434\u043e\u043b\u044f
p231
aV\u043a\u0430\u0440\u0442\u0430
p232
aV\u0440\u0430\u0441\u0448\u0438\u0440\u0435\u043d\u0438\u0435
p233
aV\u0432\u044b\u0432\u043e\u0434
p234
aV\u0442\u0435\u043c\u043f
p235
aV\u0440\u043e\u0441\u0442
p236
aV\u043a\u0430\u0440\u0442\u0438\u043d\u0430
p237
aV\u0432\u0435\u043b\u0438\u0447\u0438\u043d\u0430
p238
asVtopic_77
p239
(lp240
V\u0441\u043e\u0431\u044b\u0442\u0438\u0435
p241
aV\u0441\u0442\u0440\u0443\u043a\u0442\u0443\u0440\u0430
p242
aV\u043f\u043e\u043b\u0438\u043c\u0435\u0440
p243
aV\u043e\u0431\u0440\u0430\u0437
p244
aV\u043f\u043e\u0440\u044f\u0434\u043e\u043a
p245
aV\u043b\u0438\u0441\u0442
p246
aV\u0444\u043e\u0440\u043c\u0430
p247
aV\u043f\u043e\u0432\u0441\u0435\u0434\u043d\u0435\u0432\u043d\u043e\u0441\u0442\u044c
p248
aV\u044d\u0444\u0444\u0435\u043a\u0442
p249
aV\u0444\u0440\u0435\u0439\u043c
p250
aV\u0432\u0438\u0434
p251
aV\u043e\u0437\u0435\u0440\u043e
p252
aV\u043f\u043b\u0451\u043d\u043a\u0430
p253
aV\u0438\u0441\u0441\u043b\u0435\u0434\u043e\u0432\u0430\u043d\u0438\u0435
p254
aV\u0440\u0430\u0437\u043d\u044b\u0439_\u0442\u0438\u043f
p255
asVtopic_76
p256
(lp257
V\u0442\u0435\u0445\u043d\u043e\u043b\u043e\u0433\u0438\u044f
p258
aV\u0441\u0435\u0442\u044c
p259
aV\u0438\u043d\u0442\u0435\u0440\u043d\u0435\u0442
p260
aV\u0443\u0441\u0442\u0440\u043e\u0439\u0441\u0442\u0432\u043e
p261
aV\u0438\u0441\u043f\u043e\u043b\u044c\u0437\u043e\u0432\u0430\u043d\u0438\u0435
p262
aV\u043c\u0430\u0448\u0438\u043d\u0430
p263
aV\u043f\u043e\u043b\u044c\u0437\u043e\u0432\u0430\u0442\u0435\u043b\u044c
p264
aV\u043f\u0440\u043e\u0438\u0437\u0432\u043e\u0434\u0441\u0442\u0432\u043e
p265
aV\u0441\u0432\u044f\u0437\u044c
p266
aV\u043f\u043e\u043c\u043e\u0449\u044c
p267
aV\u0441\u043e\u0437\u0434\u0430\u043d\u0438\u0435
p268
aV\u043e\u0431\u043b\u0430\u0441\u0442\u044c
p269
aV\u0441\u043f\u043e\u0441\u043e\u0431
p270
aV\u0441\u043e\u0446\u0438\u0430\u043b\u044c\u043d\u044b\u0439_\u0441\u0435\u0442\u044c
p271
aV\u043f\u0440\u0438\u043c\u0435\u043d\u0435\u043d\u0438\u0435
p272
asVtopic_71
p273
(lp274
V\u0437\u0435\u043c\u043b\u044f
p275
aV\u0436\u0438\u0437\u043d\u044c
p276
aV\u0430\u043f\u043f\u0430\u0440\u0430\u0442
p277
aV\u043c\u0430\u0440\u0441
p278
aV\u043a\u043e\u0441\u043c\u043e\u0441
p279
aV\u0443\u0441\u043b\u043e\u0432\u0438\u0435
p280
aV\u0432\u043e\u043f\u0440\u043e\u0441
p281
aV\u043c\u0435\u0442\u0435\u043e\u0440\u0438\u0442
p282
aV\u0438\u0441\u0441\u043b\u0435\u0434\u043e\u0432\u0430\u043d\u0438\u0435
p283
aV\u043c\u0435\u0441\u0442\u043e
p284
aV\u043c\u0438\u0441\u0441\u0438\u044f
p285
aV\u0432\u0438\u0434
p286
aV\u043d\u0435\u0431\u043e
p287
aV\u0437\u0430\u043a\u0430\u0437\u0447\u0438\u043a
p288
aV\u043f\u0440\u043e\u0446\u0435\u0441\u0441
p289
asVtopic_70
p290
(lp291
V\u043f\u0430\u0440\u0430\u0434\u0438\u0433\u043c\u0430
p292
aV\u0430\u0441\u0442\u0440\u043e\u043d\u043e\u043c\u0438\u044f
p293
aV\u0430\u043a\u0430\u0434\u0435\u043c\u0438\u043a
p294
aV\u0441\u043e\u0432\u0440\u0435\u043c\u0435\u043d\u043d\u044b\u0439_\u043d\u0430\u0443\u043a\u0430
p295
aV\u043c\u043d\u043e\u0433\u043e\u043e\u0431\u0440\u0430\u0437\u0438\u0435
p296
aV\u043c\u0435\u0434\u0432\u0435\u0434\u044c
p297
aV\u043a\u043e\u043d\u043a\u0443\u0440\u0435\u043d\u0442
p298
aV\u043e\u0431\u043b\u0430\u0441\u0442\u044c
p299
aV\u043f\u0443\u043d\u043a\u0442
p300
aV\u0434\u043e\u0437\u0430
p301
aV\u0435\u043b\u044c\u0446\u0438\u043d
p302
aV\u0437\u043d\u0430\u043a
p303
aV\u0441\u0435\u043c\u0438\u043e\u0442\u0438\u043a\u0430
p304
aV\u0433\u0440\u0443\u0437\u0438\u044f
p305
aV\u0442\u043e\u0447\u043a\u0430_\u0437\u0440\u0435\u043d\u0438\u0435
p306
asVtopic_73
p307
(lp308
V\u0440\u0430\u0431\u043e\u0442\u0430
p309
aV\u0441\u0442\u0430\u0442\u044c\u044f
p310
aV\u0430\u0432\u0442\u043e\u0440
p311
aV\u0438\u0441\u0441\u043b\u0435\u0434\u043e\u0432\u0430\u043d\u0438\u0435
p312
aV\u0436\u0443\u0440\u043d\u0430\u043b
p313
aV\u0442\u0435\u043c\u0430
p314
aV\u0432\u043e\u043f\u0440\u043e\u0441
p315
aV\u043f\u0443\u0431\u043b\u0438\u043a\u0430\u0446\u0438\u044f
p316
aV\u0440\u0430\u0437\u0434\u0435\u043b
p317
aV\u0447\u0438\u0441\u043b\u043e
p318
aV\u043a\u043e\u043b\u043b\u0435\u0433\u0430
p319
aV\u0438\u0437\u0443\u0447\u0435\u043d\u0438\u0435
p320
aV\u043c\u0430\u0442\u0435\u0440\u0438\u0430\u043b
p321
aV\u0440\u0435\u0437\u0443\u043b\u044c\u0442\u0430\u0442
p322
aV\u043d\u0430\u0437\u0432\u0430\u043d\u0438\u0435
p323
asVtopic_72
p324
(lp325
V\u043f\u0440\u0438\u043c\u0435\u0440
p326
aV\u0438\u043c\u044f
p327
aV\u043e\u0431\u0440\u0430\u0437
p328
aV\u0436\u0438\u0437\u043d\u044c
p329
aV\u0441\u0442\u043e\u0440\u043e\u043d\u0430
p330
aV\u0447\u0430\u0441\u0442\u044c
p331
aV\u0444\u0430\u043a\u0442
p332
aV\u0441\u0432\u044f\u0437\u044c
p333
aV\u043f\u0440\u0430\u0432\u0438\u043b\u043e
p334
aV\u0433\u0440\u0443\u043f\u043f\u0430
p335
aV\u0441\u043b\u0443\u0447\u0430\u0439
p336
aV\u043f\u0440\u0438\u043d\u0446\u0438\u043f
p337
aV\u043f\u0440\u043e\u0446\u0435\u0441\u0441
p338
aV\u0447\u0430\u0441\u0442\u043d\u043e\u0441\u0442\u044c
p339
aV\u043e\u0441\u043d\u043e\u0432\u0430
p340
asVtopic_19
p341
(lp342
V\u043e\u0431\u044a\u0435\u043a\u0442
p343
aV\u043e\u0431\u0440\u0430\u0437
p344
aV\u043f\u0440\u0435\u0434\u043c\u0435\u0442
p345
aV\u043c\u043d\u043e\u0436\u0435\u0441\u0442\u0432\u043e
p346
aV\u0444\u043e\u0440\u043c\u0430
p347
aV\u0438\u0437\u043e\u0431\u0440\u0430\u0436\u0435\u043d\u0438\u0435
p348
aV\u0441\u0432\u043e\u0439\u0441\u0442\u0432\u043e
p349
aV\u0441\u043c\u044b\u0441\u043b
p350
aV\u043b\u044e\u0431\u0430
p351
aV\u0442\u043e\u0447\u043a\u0430
p352
aV\u0444\u0430\u043a\u0442
p353
aV\u043a\u0430\u0440\u0442\u0438\u043d\u043a\u0430
p354
aV\u043e\u0431\u043d\u0430\u0440\u0443\u0436\u0435\u043d\u0438\u0435
p355
aV\u043f\u0440\u0438\u043c\u0435\u0440
p356
aV\u0444\u043e\u0440\u043c\u0443\u043b\u0430
p357
asVtopic_18
p358
(lp359
V\u0433\u043e\u0440\u043e\u0434
p360
aV\u0441\u0432\u043e\u0431\u043e\u0434\u0430
p361
aV\u043c\u0435\u0441\u0442\u043e
p362
aV\u0436\u0438\u0437\u043d\u044c
p363
aV\u0443\u043b\u0438\u0446\u0430
p364
aV\u0433\u043e\u0440\u043e\u0436\u0430\u043d\u0438\u043d
p365
aV\u0444\u043e\u0440\u043c\u0430
p366
aV\u0442\u043e\u043b\u043f\u0430
p367
aV\u0436\u0438\u0442\u0435\u043b\u044c
p368
aV\u043f\u0440\u0438\u043d\u0446\u0438\u043f
p369
aV\u043e\u0431\u044f\u0437\u0430\u0442\u0435\u043b\u044c\u0441\u0442\u0432\u043e
p370
aV\u0440\u0430\u0432\u0435\u043d\u0441\u0442\u0432\u043e
p371
aV\u043e\u0442\u043d\u043e\u0448\u0435\u043d\u0438\u0435
p372
aV\u043e\u0442\u0432\u0435\u0442\u0441\u0442\u0432\u0435\u043d\u043d\u043e\u0441\u0442\u044c
p373
aV\u0446\u0435\u043d\u0442\u0440
p374
asVtopic_13
p375
(lp376
V\u0433\u0440\u0443\u043f\u043f\u0430
p377
aV\u043f\u0440\u043e\u0438\u0441\u0445\u043e\u0436\u0434\u0435\u043d\u0438\u0435
p378
aV\u043f\u0440\u0435\u0434\u043e\u043a
p379
aV\u0442\u044b\u0441\u044f\u0447\u0430
p380
aV\u0430\u0444\u0440\u0438\u043a\u0430
p381
aV\u0430\u043d\u0442\u0440\u043e\u043f\u043e\u043b\u043e\u0433
p382
aV\u0430\u043d\u0442\u0440\u043e\u043f\u043e\u043b\u043e\u0433\u0438\u044f
p383
aV\u0441\u043b\u0435\u0434
p384
aV\u043d\u0435\u0430\u043d\u0434\u0435\u0440\u0442\u0430\u043b\u0435\u0446
p385
aV\u043f\u0435\u0440\u0438\u043e\u0434
p386
aV\u0447\u0430\u0441\u0442\u044c
p387
aV\u043d\u0430\u0445\u043e\u0434\u043a\u0430
p388
aV\u043c\u0438\u043b\u043b\u0438\u043e\u043d
p389
aV\u044d\u0432\u043e\u043b\u044e\u0446\u0438\u044f
p390
aV\u043a\u043e\u0440\u0435\u043d\u044c
p391
asVtopic_12
p392
(lp393
V\u0432\u043e\u043f\u0440\u043e\u0441
p394
aV\u043e\u043f\u044b\u0442
p395
aV\u0432\u043d\u0438\u043c\u0430\u043d\u0438\u0435
p396
aV\u0441\u043f\u043e\u0441\u043e\u0431\u043d\u043e\u0441\u0442\u044c
p397
aV\u0438\u0441\u0441\u043b\u0435\u0434\u043e\u0432\u0430\u043d\u0438\u0435
p398
aV\u043d\u0430\u043f\u0440\u0430\u0432\u043b\u0435\u043d\u0438\u0435
p399
aV\u043f\u0440\u043e\u0446\u0435\u0441\u0441
p400
aV\u0441\u043f\u043e\u0441\u043e\u0431
p401
aV\u0438\u0441\u0441\u043b\u0435\u0434\u043e\u0432\u0430\u0442\u0435\u043b\u044c
p402
aV\u043f\u0440\u0438\u043d\u0446\u0438\u043f
p403
aV\u0441\u0442\u043e\u0440\u043e\u043d\u0430
p404
aV\u043f\u043e\u043d\u0438\u043c\u0430\u043d\u0438\u0435
p405
aV\u0437\u043d\u0430\u043d\u0438\u0435
p406
aV\u043f\u0440\u043e\u0431\u043b\u0435\u043c\u0430
p407
aV\u043c\u043e\u043c\u0435\u043d\u0442
p408
asVtopic_11
p409
(lp410
V\u0436\u0438\u0437\u043d\u044c
p411
aV\u043c\u044b\u0441\u043b\u044c
p412
aV\u0438\u0434\u0435\u044f
p413
aV\u0441\u043c\u0435\u0440\u0442\u044c
p414
aV\u043e\u0431\u0440\u0430\u0437
p415
aV\u0432\u0440\u0430\u0433
p416
aV\u043f\u0443\u0442\u044c
p417
aV\u0442\u0440\u0443\u0434
p418
aV\u0441\u0438\u043b\u0430
p419
aV\u0444\u0438\u043b\u043e\u0441\u043e\u0444
p420
aV\u0430\u0432\u0442\u043e\u0440
p421
aV\u0444\u0438\u0433\u0443\u0440\u0430
p422
aV\u0438\u0441\u0442\u0438\u043d\u0430
p423
aV\u0432\u043e\u043b\u044f
p424
aV\u0447\u0430\u0441\u0442\u044c
p425
asVtopic_10
p426
(lp427
V\u0441\u043e\u0441\u0442\u043e\u044f\u043d\u0438\u0435
p428
aV\u0441\u043e\u043d
p429
aV\u0446\u0438\u043a\u043b
p430
aV\u0444\u0430\u0437\u0430
p431
aV\u043c\u043e\u0434\u0430
p432
aV\u043f\u0440\u043e\u0446\u0435\u0441\u0441
p433
aV\u0432\u043e\u0437\u0434\u0435\u0439\u0441\u0442\u0432\u0438\u0435
p434
aV\u0432\u0438\u0434
p435
aV\u043a\u0430\u0442\u0430\u0441\u0442\u0440\u043e\u0444\u0430
p436
aV\u043e\u0431\u0440\u0430\u0437
p437
aV\u043e\u0434\u0435\u0436\u0434\u0430
p438
aV\u0442\u0435\u0447\u0435\u043d\u0438\u0435
p439
aV\u0441\u0442\u043e\u0440\u043e\u043d\u0430
p440
aV\u043f\u0440\u0435\u043f\u044f\u0442\u0441\u0442\u0432\u0438\u0435
p441
aV\u043e\u0442\u0445\u043e\u0434
p442
asVtopic_17
p443
(lp444
V\u043a\u043b\u0435\u0442\u043a\u0430
p445
aV\u0442\u043a\u0430\u043d\u044c
p446
aV\u043e\u0440\u0433\u0430\u043d
p447
aV\u0438\u0441\u0441\u043b\u0435\u0434\u043e\u0432\u0430\u043d\u0438\u0435
p448
aV\u0431\u0438\u043e\u043b\u043e\u0433
p449
aV\u043c\u0435\u0445\u0430\u043d\u0438\u0437\u043c
p450
aV\u043e\u0440\u0433\u0430\u043d\u0438\u0437\u043c
p451
aV\u043c\u0438\u043a\u0440\u043e\u0431
p452
aV\u0441\u0438\u0441\u0442\u0435\u043c\u0430
p453
aV\u043a\u0440\u043e\u0432\u044c
p454
aV\u0444\u0435\u0440\u043c\u0435\u043d\u0442
p455
aV\u0440\u0430\u043a
p456
aV\u043c\u0435\u043c\u0431\u0440\u0430\u043d\u0430
p457
aV\u043c\u044b\u0448\u044c
p458
aV\u044d\u043a\u0441\u043f\u0435\u0440\u0438\u043c\u0435\u043d\u0442
p459
asVtopic_16
p460
(lp461
V\u0436\u0435\u043d\u0449\u0438\u043d\u0430
p462
aV\u043c\u0443\u0436\u0447\u0438\u043d\u0430
p463
aV\u043c\u0443\u0437\u0435\u0439
p464
aV\u043f\u0438\u0441\u044c\u043c\u043e
p465
aV\u043d\u0430\u0441\u0438\u043b\u0438\u0435
p466
aV\u043c\u0443\u0436
p467
aV\u043a\u043e\u043d\u0435\u0446_xix_\u0432\u0435\u043a
p468
aV\u0447\u0438\u0441\u043b\u043e
p469
aV\u043e\u0431\u0449\u0435\u0441\u0442\u0432\u043e
p470
aV\u043e\u0431\u0440\u0430\u0437
p471
aV\u0437\u043d\u0430\u043a
p472
aV\u043f\u0438\u0441\u044c\u043c\u0435\u043d\u043d\u043e\u0441\u0442\u044c
p473
aV\u0447\u0430\u0449\u0430
p474
aV\u0441\u043b\u0443\u0447\u0430\u0439
p475
aV\u0434\u0435\u0432\u0443\u0448\u043a\u0430
p476
asVtopic_15
p477
(lp478
V\u0444\u0438\u043b\u044c\u043c
p479
aV\u043a\u0438\u043d\u043e
p480
aV\u0436\u0430\u043d\u0440
p481
aV\u0437\u0440\u0438\u0442\u0435\u043b\u044c
p482
aV\u0442\u0435\u043c\u0430
p483
aV\u0441\u0446\u0435\u043d\u0430
p484
aV\u043a\u0438\u043d\u0435\u043c\u0430\u0442\u043e\u0433\u0440\u0430\u0444
p485
aV\u043a\u0430\u0440\u0442\u0438\u043d\u0430
p486
aV\u0430\u0432\u0442\u043e\u0440
p487
aV\u0441\u043c\u044b\u0441\u043b
p488
aV\u043f\u043e\u043b\u0438\u0442\u0438\u0447\u0435\u0441\u043a\u0438\u0439_\u0444\u0438\u043b\u043e\u0441\u043e\u0444\u0438\u044f
p489
aV\u044d\u043a\u0440\u0430\u043d
p490
aV\u0442\u043e\u0447\u043a\u0430_\u0437\u0440\u0435\u043d\u0438\u0435
p491
aV\u0432\u044b\u0441\u043a\u0430\u0437\u044b\u0432\u0430\u043d\u0438\u0435
p492
aV\u0445\u043e\u0440\u0440\u043e\u0440
p493
asVtopic_14
p494
(lp495
V\u0442\u0440\u0430\u0434\u0438\u0446\u0438\u044f
p496
aV\u043f\u0430\u043c\u044f\u0442\u043d\u0438\u043a
p497
aV\u0440\u0438\u0442\u0443\u0430\u043b
p498
aV\u043c\u0435\u0441\u0442\u043e
p499
aV\u043f\u0435\u0440\u0441\u043e\u043d\u0430\u0436
p500
aV\u0440\u043e\u0434
p501
aV\u0434\u043e\u043c
p502
aV\u0440\u0435\u043b\u0438\u0433\u0438\u044f
p503
aV\u043e\u0431\u0440\u044f\u0434
p504
aV\u0445\u043e\u0437\u044f\u0438\u043d
p505
aV\u0436\u0438\u0432\u043e\u0439
p506
aV\u0438\u0440\u043b\u0430\u043d\u0434\u0438\u044f
p507
aV\u044d\u043f\u043e\u0445\u0430
p508
aV\u043f\u0435\u0440\u0438\u043e\u0434
p509
aV\u0436\u0438\u0437\u043d\u044c
p510
asVtopic_80
p511
(lp512
V\u044d\u043d\u0435\u0440\u0433\u0438\u044f
p513
aV\u0438\u043c\u043f\u0443\u043b\u044c\u0441
p514
aV\u043e\u0442\u043a\u0440\u044b\u0442\u0438\u0435
p515
aV\u043f\u0440\u043e\u0446\u0435\u0441\u0441
p516
aV\u0443\u0441\u043a\u043e\u0440\u0438\u0442\u0435\u043b\u044c
p517
aV\u0440\u0435\u0437\u0443\u043b\u044c\u0442\u0430\u0442
p518
aV\u0431\u043e\u0437\u043e\u043d_\u0445\u0438\u0433\u0433\u0441
p519
aV\u0440\u0430\u0431\u043e\u0442\u0430
p520
aV\u043e\u0431\u043b\u0430\u0441\u0442\u044c
p521
aV\u043a\u0430\u043d\u0430\u043b
p522
aV\u0441\u0432\u043e\u0439\u0441\u0442\u0432\u043e
p523
aV\u0441\u043b\u0443\u0447\u0430\u0439
p524
aV\u043c\u0438\u0448\u0435\u043d\u044c
p525
aV\u043a\u043e\u0440\u0430
p526
aV\u0447\u0430\u0441\u0442\u043e\u0442\u0430
p527
asVtopic_81
p528
(lp529
V\u043d\u0430\u0443\u043a\u0430
p530
aV\u0443\u0447\u0451\u043d\u044b\u0439
p531
aV\u0434\u043e\u043a\u0443\u043c\u0435\u043d\u0442
p532
aV\u0438\u043c\u044f
p533
aV\u043f\u0440\u0438\u043d\u0446\u0438\u043f
p534
aV\u0445\u0443\u0434\u043e\u0436\u043d\u0438\u043a
p535
aV\u043f\u0440\u043e\u0444\u0435\u0441\u0441\u0438\u044f
p536
aV\u043e\u0442\u043a\u0440\u044b\u0442\u0438\u0435
p537
aV\u0441\u043f\u0435\u0446\u0438\u0430\u043b\u0438\u0441\u0442
p538
aV\u043a\u0430\u0444\u0435\u0434\u0440\u0430
p539
aV\u0442\u043e\u0447\u043a\u0430_\u0437\u0440\u0435\u043d\u0438\u0435
p540
aV\u0441\u0442\u043e\u0440\u043e\u043d\u0430
p541
aV\u043f\u0440\u043e\u0431\u043b\u0435\u043c\u0430
p542
aV\u0440\u0430\u0431\u043e\u0442\u0430
p543
aV\u043c\u043e\u043c\u0435\u043d\u0442
p544
asVtopic_82
p545
(lp546
V\u043f\u043b\u0430\u043d\u0435\u0442\u0430
p547
aV\u0430\u0442\u043c\u043e\u0441\u0444\u0435\u0440\u0430
p548
aV\u043f\u043b\u0430\u043d\u0435\u0442
p549
aV\u0432\u043e\u0434\u0430
p550
aV\u043f\u043e\u0432\u0435\u0440\u0445\u043d\u043e\u0441\u0442\u044c
p551
aV\u043a\u0438\u0441\u043b\u043e\u0440\u043e\u0434
p552
aV\u0434\u0430\u0432\u043b\u0435\u043d\u0438\u0435
p553
aV\u0437\u0435\u043c\u043b\u044f
p554
aV\u0432\u043e\u0434\u043e\u0440\u043e\u0434
p555
aV\u0433\u043b\u0443\u0431\u0438\u043d\u0430
p556
aV\u0436\u0438\u0437\u043d\u044c
p557
aV\u043c\u0435\u0442\u0430\u043d
p558
aV\u0442\u0435\u043c\u043f\u0435\u0440\u0430\u0442\u0443\u0440\u0430
p559
aV\u0443\u0441\u043b\u043e\u0432\u0438\u0435
p560
aV\u0432\u043e\u0437\u0434\u0443\u0445
p561
asVtopic_83
p562
(lp563
V\u0440\u0435\u0432\u043e\u043b\u044e\u0446\u0438\u044f
p564
aV\u043a\u043e\u0440\u043e\u043b\u044c
p565
aV\u0444\u0440\u0430\u043d\u0446\u0438\u044f
p566
aV\u0438\u043c\u043f\u0435\u0440\u0430\u0442\u043e\u0440
p567
aV\u0438\u043c\u043f\u0435\u0440\u0438\u044f
p568
aV\u0440\u0435\u0441\u043f\u0443\u0431\u043b\u0438\u043a\u0430
p569
aV\u0440\u0438\u043c
p570
aV\u043d\u0430\u0440\u043e\u0434
p571
aV\u043a\u043e\u043d\u0441\u0442\u0438\u0442\u0443\u0446\u0438\u044f
p572
aV\u0435\u0432\u0440\u043e\u043f\u0430
p573
aV\u0438\u0442\u0430\u043b\u0438\u044f
p574
aV\u044d\u043f\u043e\u0445\u0430
p575
aV\u0440\u043e\u0441\u0441\u0438\u044f
p576
aV\u043f\u0430\u0440\u0438\u0436
p577
aV\u0432\u043e\u0441\u0441\u0442\u0430\u043d\u0438\u0435
p578
asVtopic_84
p579
(lp580
V\u0440\u0430\u0441\u0442\u0435\u043d\u0438\u0435
p581
aV\u0434\u0435\u0440\u0435\u0432\u043e
p582
aV\u043f\u043b\u043e\u0434
p583
aV\u043e\u0440\u0435\u0445
p584
aV\u0443\u0447\u0430\u0441\u0442\u043e\u043a
p585
aV\u0434\u0430\u0440\u0432\u0438\u043d
p586
aV\u0434\u043b\u0438\u043d\u0430
p587
aV\u0441\u0435\u043c\u044f
p588
aV\u043c\u0430\u0440\u043a\u0435\u0440
p589
aV\u043f\u0440\u0438\u0437\u043d\u0430\u043a
p590
aV\u0432\u0438\u0434
p591
aV\u043c\u0443\u0440\u0430\u0432\u044c\u0435\u0432
p592
aV\u0441\u0435\u043a\u0432\u0435\u043d\u0438\u0440\u043e\u0432\u0430\u043d\u0438\u0435
p593
aV\u043f\u0440\u043e\u0434\u0443\u043a\u0442
p594
aV\u043f\u0440\u0438\u043c\u0435\u0440
p595
asVtopic_85
p596
(lp597
V\u043a\u043e\u043c\u0430\u043d\u0434\u0430
p598
aV\u0440\u0430\u043d\u0430
p599
aV\u043c\u043e\u043b\u043e\u0434\u0451\u0436\u044c
p600
aV\u0430\u043a\u0430\u0434\u0435\u043c\u0438\u044f
p601
aV\u0441\u043c\u0438
p602
aV\u0437\u043e\u043c\u0431\u0438
p603
aV\u0432\u044b\u0441\u0442\u0443\u043f\u043b\u0435\u043d\u0438\u0435
p604
aV\u043f\u043e\u043f\u0443\u043b\u044f\u0440\u043d\u043e\u0441\u0442\u044c
p605
aV\u0440\u0435\u0436\u0438\u0441\u0441\u0451\u0440
p606
aV\u0441\u043f\u043e\u0440\u0442
p607
aV\u043c\u043e\u043b\u043e\u0434\u0430\u044f
p608
aV\u043a\u043b\u0443\u0431
p609
aV\u043f\u0440\u043e\u0431\u043b\u0435\u043c\u0430
p610
aV\u0440\u0435\u043f\u0440\u0435\u0437\u0435\u043d\u0442\u0430\u0446\u0438\u044f
p611
aV\u043d\u043e\u043c\u0435\u0440
p612
asVtopic_86
p613
(lp614
V\u043c\u043e\u043b\u0435\u043a\u0443\u043b\u0430
p615
aV\u0431\u0435\u043b\u043a\u0430
p616
aV\u0431\u0435\u043b\u043e\u043a
p617
aV\u0432\u0438\u0440\u0443\u0441
p618
aV\u0440\u0435\u0446\u0435\u043f\u0442\u043e\u0440
p619
aV\u043a\u043b\u0435\u0442\u043a\u0430
p620
aV\u043e\u0431\u0440\u0430\u0437
p621
aV\u043e\u043f\u0443\u0445\u043e\u043b\u044c
p622
aV\u0432\u0437\u0430\u0438\u043c\u043e\u0434\u0435\u0439\u0441\u0442\u0432\u0438\u0435
p623
aV\u0440\u0430\u0431\u043e\u0442\u0430
p624
aV\u043d\u043e\u0431\u0435\u043b\u0435\u0432\u0441\u043a\u0438\u0439_\u043f\u0440\u0435\u043c\u0438\u044f
p625
aV\u0441\u0442\u0440\u0443\u043a\u0442\u0443\u0440\u0430
p626
aV\u043f\u043e\u043c\u043e\u0449\u044c
p627
aV\u043f\u0440\u043e\u0446\u0435\u0441\u0441
p628
aV\u0444\u0443\u043d\u043a\u0446\u0438\u044f
p629
asVtopic_87
p630
(lp631
V\u0442\u0435\u043e\u0440\u0438\u044f
p632
aV\u043f\u043e\u043d\u044f\u0442\u0438\u0435
p633
aV\u043a\u043e\u043d\u0446\u0435\u043f\u0446\u0438\u044f
p634
aV\u0438\u0434\u0435\u044f
p635
aV\u0441\u043c\u044b\u0441\u043b
p636
aV\u043f\u043e\u0434\u0445\u043e\u0434
p637
aV\u0442\u0435\u0440\u043c\u0438\u043d
p638
aV\u043b\u043e\u0433\u0438\u043a\u0430
p639
aV\u043e\u0441\u043d\u043e\u0432\u0430
p640
aV\u043f\u043e\u043d\u0438\u043c\u0430\u043d\u0438\u0435
p641
aV\u0444\u0430\u043a\u0442
p642
aV\u043e\u043f\u0440\u0435\u0434\u0435\u043b\u0435\u043d\u0438\u0435
p643
aV\u0440\u0430\u043c\u043a\u0430
p644
aV\u0432\u0437\u0433\u043b\u044f\u0434
p645
aV\u0441\u0432\u044f\u0437\u044c
p646
asVtopic_88
p647
(lp648
V\u043e\u0441\u0442\u0440\u043e\u0432
p649
aV\u0430\u043d\u0433\u043b\u0438\u044f
p650
aV\u0433\u043e\u0440\u0430
p651
aV\u044d\u043f\u043e\u0445\u0430
p652
aV\u043a\u043e\u0440\u0430\u0431\u043b\u044c
p653
aV\u043f\u043e\u0431\u0435\u0434\u0430
p654
aV\u0431\u043e\u0436\u0435\u0441\u0442\u0432\u043e
p655
aV\u043d\u0430\u0434\u043f\u0438\u0441\u044c
p656
aV\u0440\u0435\u043a\u0430
p657
aV\u043c\u043e\u0440\u0435
p658
aV\u043a\u043e\u043d\u0435\u0446
p659
aV\u043f\u043e\u0440\u0430\u0436\u0435\u043d\u0438\u0435
p660
aV\u0432\u043e\u0435\u043d\u043d\u044b\u0439
p661
aV\u043a\u0430\u043c\u0435\u043d\u044c
p662
aV\u0445\u0440\u0430\u043c
p663
asVtopic_89
p664
(lp665
V\u044f\u0437\u044b\u043a
p666
aV\u0441\u043b\u043e\u0432\u043e
p667
aV\u043b\u0438\u043d\u0433\u0432\u0438\u0441\u0442
p668
aV\u0434\u0438\u0430\u043b\u0435\u043a\u0442
p669
aV\u043d\u0430\u0437\u0432\u0430\u043d\u0438\u0435
p670
aV\u0437\u0430\u0438\u043c\u0441\u0442\u0432\u043e\u0432\u0430\u043d\u0438\u0435
p671
aV\u043b\u0438\u043d\u0433\u0432\u0438\u0441\u0442\u0438\u043a\u0430
p672
aV\u0440\u0443\u0441\u0441\u043a\u0438\u0439_\u044f\u0437\u044b\u043a
p673
aV\u043d\u043e\u0441\u0438\u0442\u0435\u043b\u044c
p674
aV\u0441\u0438\u043d\u0442\u0430\u043a\u0441\u0438\u0441
p675
aV\u043e\u0441\u043e\u0431\u0435\u043d\u043d\u043e\u0441\u0442\u044c
p676
aV\u043b\u0435\u043a\u0441\u0438\u043a\u0430
p677
aV\u0440\u0435\u0447\u044c
p678
aV\u043f\u0440\u043e\u0441\u0442\u043e\u0439
p679
aV\u043d\u0430\u0440\u043e\u0434
p680
asVtopic_28
p681
(lp682
V\u0437\u043d\u0430\u043d\u0438\u0435
p683
aV\u043f\u043e\u043d\u044f\u0442\u0438\u0435
p684
aV\u043f\u0440\u043e\u0448\u043b\u043e\u0435
p685
aV\u043f\u043e\u043b\u0438\u0442\u0438\u043a\u0430
p686
aV\u043a\u0430\u0442\u0435\u0433\u043e\u0440\u0438\u044f
p687
aV\u0438\u0434\u0435\u043d\u0442\u0438\u0447\u043d\u043e\u0441\u0442\u044c
p688
aV\u0440\u0430\u043c\u043a\u0430
p689
aV\u043d\u0430\u0446\u0438\u044f
p690
aV\u043b\u0438\u0447\u043d\u043e\u0441\u0442\u044c
p691
aV\u0434\u0438\u0430\u043b\u043e\u0433
p692
aV\u0433\u0440\u0443\u043f\u043f\u0430
p693
aV\u044d\u043b\u0438\u0442\u0430
p694
aV\u043f\u0440\u043e\u0431\u043b\u0435\u043c\u0430
p695
aV\u043f\u0440\u0435\u0434\u0441\u0442\u0430\u0432\u043b\u0435\u043d\u0438\u0435
p696
aV\u0442\u0435\u0440\u043c\u0438\u043d
p697
asVtopic_29
p698
(lp699
V\u043a\u043e\u043c\u043f\u043e\u043d\u0435\u043d\u0442
p700
aV\u0445\u0430\u0440\u0430\u043a\u0442\u0435\u0440\u0438\u0441\u0442\u0438\u043a\u0430
p701
aV\u043e\u0431\u0440\u0430\u0437\u0435\u0446
p702
aV\u0437\u043e\u043d\u0430
p703
aV\u0438\u0437\u043c\u0435\u043d\u0435\u043d\u0438\u0435
p704
aV\u043f\u0440\u043e\u0446\u0435\u0441\u0441
p705
aV\u043f\u0440\u0435\u0434\u0435\u043b
p706
aV\u0432\u043e\u0437\u0434\u0435\u0439\u0441\u0442\u0432\u0438\u0435
p707
aV\u043a\u043e\u043b\u0438\u0447\u0435\u0441\u0442\u0432\u043e
p708
aV\u0447\u0430\u0441\u0442\u044c
p709
aV\u043e\u0441\u043d\u043e\u0432\u0430
p710
aV\u0447\u0443\u0434\u043e
p711
aV\u0440\u0438\u0441\u0443\u043d\u043e\u043a
p712
aV\u0441\u0440\u0430\u0432\u043d\u0435\u043d\u0438\u0435
p713
aV\u0442\u043e\u043d
p714
asVtopic_26
p715
(lp716
V\u0442\u0435\u043a\u0441\u0442
p717
aV\u043b\u0438\u0442\u0435\u0440\u0430\u0442\u0443\u0440\u0430
p718
aV\u0441\u043b\u043e\u0432\u043e
p719
aV\u0441\u043c\u044b\u0441\u043b
p720
aV\u0441\u0442\u043e\u0440\u043e\u043d\u0430
p721
aV\u0447\u0430\u0441\u0442\u044c
p722
aV\u043f\u0435\u0440\u0435\u0432\u043e\u0434
p723
aV\u0432\u0438\u0434
p724
aV\u0438\u043c\u044f
p725
aV\u0436\u0438\u0437\u043d\u044c
p726
aV\u043e\u0431\u0440\u0430\u0437
p727
aV\u0440\u0430\u0441\u0441\u043a\u0430\u0437
p728
aV\u043d\u0430\u0437\u0432\u0430\u043d\u0438\u0435
p729
aV\u0447\u0438\u0441\u043b\u043e
p730
aV\u043f\u0440\u043e\u0438\u0437\u0432\u0435\u0434\u0435\u043d\u0438\u0435
p731
asVtopic_27
p732
(lp733
V\u0433\u043b\u0430\u0437
p734
aV\u0430\u0440\u0445\u0438\u0442\u0435\u043a\u0442\u0443\u0440\u0430
p735
aV\u0442\u0435\u0445\u043d\u0438\u043a\u0430
p736
aV\u0434\u043e\u043c
p737
aV\u0437\u0434\u0430\u043d\u0438\u0435
p738
aV\u0446\u0432\u0435\u0442\u0430
p739
aV\u0444\u043e\u0440\u043c\u0430
p740
aV\u043a\u043e\u043c\u043d\u0430\u0442\u0430
p741
aV\u043f\u043b\u043e\u0449\u0430\u0434\u044c
p742
aV\u0442\u0438\u043f
p743
aV\u0432\u0437\u0433\u043b\u044f\u0434
p744
aV\u043e\u0431\u0440\u0430\u0437
p745
aV\u0430\u0440\u0445\u0438\u0442\u0435\u043a\u0442\u043e\u0440
p746
aV\u0434\u0438\u0437\u0430\u0439\u043d
p747
aV\u043f\u0440\u043e\u0435\u043a\u0442
p748
asVtopic_24
p749
(lp750
V\u0438\u043c\u044f
p751
aV\u043f\u0440\u0430\u0432\u0438\u0442\u0435\u043b\u044c
p752
aV\u043e\u0442\u0435\u0446
p753
aV\u0441\u044b\u043d
p754
aV\u0441\u043c\u0435\u0440\u0442\u044c
p755
aV\u0440\u0443\u0441\u044c
p756
aV\u0434\u0438\u043d\u0430\u0441\u0442\u0438\u044f
p757
aV\u0433\u043e\u0441\u0443\u0434\u0430\u0440\u044c
p758
aV\u043f\u0440\u0430\u0432\u043b\u0435\u043d\u0438\u0435
p759
aV\u043a\u043d\u044f\u0437\u044c
p760
aV\u043e\u0431\u0440\u0430\u0437
p761
aV\u0432\u043b\u0430\u0441\u0442\u044c
p762
aV\u0440\u0443\u043a\u0430
p763
aV\u0433\u043b\u0430\u0432\u0430
p764
aV\u0441\u0442\u043e\u0440\u043e\u043d\u0430
p765
asVtopic_25
p766
(lp767
V\u0431\u0443\u043a\u0432\u0430
p768
aV\u0437\u0432\u0443\u043a
p769
aV\u043a\u0430\u0432\u043a\u0430\u0437
p770
aV\u0433\u043b\u0430\u0441\u043d\u044b\u0439
p771
aV\u0441\u043b\u043e\u0432\u043e
p772
aV\u0441\u0432\u044f\u0442\u0438\u043b\u0438\u0449\u0435
p773
aV\u0441\u043e\u0433\u043b\u0430\u0441\u043d\u044b\u0439
p774
aV\u044d\u043a\u0441\u043f\u0435\u0434\u0438\u0446\u0438\u044f
p775
aV\u0433\u043e\u0432\u043e\u0440
p776
aV\u0440\u0443\u0441\u0441\u043a\u0438\u0439_\u044f\u0437\u044b\u043a
p777
aV\u0443\u0434\u0430\u0440\u0435\u043d\u0438\u0435
p778
aV\u0432\u0430\u0440\u0438\u0430\u043d\u0442
p779
aV\u043b\u0438\u0442\u0440
p780
aV\u0444\u0438\u0433\u0443\u0440\u043a\u0430
p781
aV\u043c\u0430\u0442\u0435\u0440\u0438\u0430\u043b
p782
asVtopic_22
p783
(lp784
V\u0441\u0442\u0443\u0434\u0435\u043d\u0442
p785
aV\u0441\u0442\u0440\u0430\u043d\u0430
p786
aV\u0443\u0447\u0438\u0442\u0435\u043b\u044c
p787
aV\u043e\u0431\u0440\u0430\u0437\u043e\u0432\u0430\u043d\u0438\u0435
p788
aV\u0431\u0438\u0437\u043d\u0435\u0441
p789
aV\u0440\u043e\u0441\u0441\u0438\u044f
p790
aV\u043f\u0440\u043e\u0431\u043b\u0435\u043c\u0430
p791
aV\u0432\u043e\u043f\u0440\u043e\u0441
p792
aV\u0443\u0440\u043e\u0432\u0435\u043d\u044c
p793
aV\u043f\u0440\u0435\u043f\u043e\u0434\u0430\u0432\u0430\u0442\u0435\u043b\u044c
p794
aV\u0432\u0443\u0437
p795
aV\u0443\u0447\u0435\u043d\u0438\u043a
p796
aV\u0448\u043a\u043e\u043b\u044c\u043d\u0438\u043a
p797
aV\u0443\u0447\u0435\u0431\u043d\u0438\u043a
p798
aV\u0441\u043f\u0440\u043e\u0441
p799
asVtopic_23
p800
(lp801
V\u043f\u0430\u043c\u044f\u0442\u044c
p802
aV\u043f\u0440\u043e\u0446\u0435\u0441\u0441
p803
aV\u0445\u0440\u043e\u043c\u043e\u0441\u043e\u043c\u0430
p804
aV\u043e\u0431\u0440\u0430\u0437
p805
aV\u0432\u043e\u0441\u043f\u043e\u043c\u0438\u043d\u0430\u043d\u0438\u0435
p806
aV\u0430\u0441\u0441\u043e\u0446\u0438\u0430\u0446\u0438\u044f
p807
aV\u0433\u043e\u043b\u043e\u0432\u043d\u043e\u0439_\u043c\u043e\u0437\u0433
p808
aV\u043b\u043e\u0448\u0430\u0434\u044c
p809
aV\u0441\u0442\u043e\u0440\u043e\u043d\u0430
p810
aV\u043a\u043e\u043d\u0435\u0446
p811
aV\u0436\u0438\u0437\u043d\u044c
p812
aV\u0435\u0433\u044d
p813
aV\u0443\u0441\u0438\u043b\u0435\u043d\u0438\u0435
p814
aV\u0432\u043e\u0441\u0441\u0442\u0430\u043d\u043e\u0432\u043b\u0435\u043d\u0438\u0435
p815
aV\u0432\u043c\u0435\u0448\u0430\u0442\u0435\u043b\u044c\u0441\u0442\u0432\u043e
p816
asVtopic_20
p817
(lp818
V\u0431\u043e\u043b\u044c\u0448\u0438\u043d\u0441\u0442\u0432\u043e
p819
aV\u043f\u043e\u0440\u0430
p820
aV\u0441\u043b\u0443\u0447\u0430\u0439
p821
aV\u043b\u0430\u0431\u043e\u0440\u0430\u0442\u043e\u0440\u0438\u044f
p822
aV\u0440\u0430\u0431\u043e\u0442\u0430
p823
aV\u0447\u0438\u0441\u043b\u043e
p824
aV\u0432\u043e\u0437\u043c\u043e\u0436\u043d\u043e\u0441\u0442\u044c
p825
aV\u0438\u0441\u0441\u043b\u0435\u0434\u043e\u0432\u0430\u043d\u0438\u0435
p826
aV\u0432\u043e\u043f\u0440\u043e\u0441
p827
aV\u0441\u043e\u0436\u0430\u043b\u0435\u043d\u0438\u0435
p828
aV\u0431\u0443\u0434\u0443\u0449\u0435\u0435
p829
aV\u043d\u043e\u0432\u043e\u0435
p830
aV\u0440\u044f\u0434
p831
aV\u0440\u0435\u0437\u0443\u043b\u044c\u0442\u0430\u0442
p832
aV\u043f\u043e\u043c\u043e\u0449\u044c
p833
asVtopic_21
p834
(lp835
V\u043e\u0442\u043d\u043e\u0448\u0435\u043d\u0438\u0435
p836
aV\u043e\u0431\u0449\u0435\u0441\u0442\u0432\u043e
p837
aV\u0446\u0435\u043b\u043e\u0435
p838
aV\u0433\u0440\u0430\u043d\u0438\u0446\u0430
p839
aV\u0432\u0437\u0433\u043b\u044f\u0434
p840
aV\u0441\u0438\u0442\u0443\u0430\u0446\u0438\u044f
p841
aV\u0440\u0430\u0431\u043e\u0442\u0430
p842
aV\u043e\u0442\u0432\u0435\u0442
p843
aV\u0432\u043e\u0437\u043c\u043e\u0436\u043d\u043e\u0441\u0442\u044c
p844
aV\u043f\u0440\u0430\u043a\u0442\u0438\u043a\u0430
p845
aV\u043f\u0440\u043e\u0431\u043b\u0435\u043c\u0430
p846
aV\u0442\u043e\u0447\u043a\u0430_\u0437\u0440\u0435\u043d\u0438\u0435
p847
aV\u043f\u043e\u0437\u0438\u0446\u0438\u044f
p848
aV\u043f\u0440\u043e\u0446\u0435\u0441\u0441
p849
aV\u0441\u0442\u043e\u0440\u043e\u043d\u0430
p850
asVtopic_7
p851
(lp852
V\u0441\u0442\u0440\u0430\u043d\u0430
p853
aV\u043a\u0438\u0442\u0430\u0439
p854
aV\u043d\u0430\u0441\u0435\u043b\u0435\u043d\u0438\u0435
p855
aV\u0435\u0432\u0440\u043e\u043f\u0430
p856
aV\u0442\u0435\u0440\u0440\u0438\u0442\u043e\u0440\u0438\u044f
p857
aV\u044f\u043f\u043e\u043d\u0438\u044f
p858
aV\u0440\u0435\u0433\u0438\u043e\u043d
p859
aV\u0437\u0430\u043f\u0430\u0434
p860
aV\u0440\u043e\u0441\u0441\u0438\u044f
p861
aV\u0432\u043e\u0441\u0442\u043e\u043a
p862
aV\u0430\u043c\u0435\u0440\u0438\u043a\u0430
p863
aV\u043d\u0430\u0440\u043e\u0434
p864
aV\u043f\u0435\u0440\u0438\u043e\u0434
p865
aV\u0435\u0432\u0440\u043e\u043f\u0435\u0435\u0446
p866
aV\u043e\u0442\u043d\u043e\u0448\u0435\u043d\u0438\u0435
p867
asVtopic_6
p868
(lp869
V\u0440\u043e\u0441\u0441\u0438\u044f
p870
aV\u0441\u0442\u043e\u0440\u043e\u043d\u0430
p871
aV\u0434\u0432\u0438\u0436\u0435\u043d\u0438\u0435
p872
aV\u043a\u043e\u043d\u0444\u043b\u0438\u043a\u0442
p873
aV\u043e\u0442\u043d\u043e\u0448\u0435\u043d\u0438\u0435
p874
aV\u0433\u0440\u0443\u043f\u043f\u0430
p875
aV\u0438\u0434\u0435\u044f
p876
aV\u0438\u0434\u0435\u043e\u043b\u043e\u0433\u0438\u044f
p877
aV\u043c\u043e\u043c\u0435\u043d\u0442
p878
aV\u0438\u043d\u0442\u0435\u0440\u0435\u0441
p879
aV\u0431\u043e\u0440\u044c\u0431\u0430
p880
aV\u043f\u043e\u043f\u044b\u0442\u043a\u0430
p881
aV\u0438\u043c\u044f
p882
aV\u0446\u0435\u043b\u043e\u0435
p883
aV\u0441\u0438\u0442\u0443\u0430\u0446\u0438\u044f
p884
asVtopic_5
p885
(lp886
V\u0438\u043d\u0444\u043e\u0440\u043c\u0430\u0446\u0438\u044f
p887
aV\u043f\u043e\u0438\u0441\u043a
p888
aV\u0433\u043b\u0430\u0437
p889
aV\u043e\u0431\u0440\u0430\u0437
p890
aV\u0432\u043e\u043f\u0440\u043e\u0441
p891
aV\u0441\u043f\u043e\u0441\u043e\u0431
p892
aV\u043f\u0440\u0435\u0434\u043f\u043e\u0447\u0442\u0435\u043d\u0438\u0435
p893
aV\u0433\u043e\u043b\u043e\u0432
p894
aV\u043c\u043e\u0442\u0438\u0432
p895
aV\u043d\u0435\u044f
p896
aV\u043e\u0442\u0432\u0435\u0442
p897
aV\u0441\u0438\u0433\u043d\u0430\u043b
p898
aV\u0441\u0447\u0430\u0441\u0442\u0438\u0435
p899
aV\u043e\u0431\u0449\u0435\u043d\u0438\u0435
p900
aV\u0441\u043b\u0443\u0447\u0430\u0439
p901
asVtopic_4
p902
(lp903
V\u0441\u043e\u043e\u0431\u0449\u0435\u0441\u0442\u0432\u043e
p904
aV\u043e\u0442\u043d\u043e\u0448\u0435\u043d\u0438\u0435
p905
aV\u0430\u043d\u0430\u043b\u0438\u0437
p906
aV\u043f\u0440\u0430\u043a\u0442\u0438\u043a\u0430
p907
aV\u0438\u043d\u0442\u0435\u0440\u043f\u0440\u0435\u0442\u0430\u0446\u0438\u044f
p908
aV\u043e\u043f\u0438\u0441\u0430\u043d\u0438\u0435
p909
aV\u0438\u0441\u0441\u043b\u0435\u0434\u043e\u0432\u0430\u0442\u0435\u043b\u044c
p910
aV\u043e\u0441\u043d\u043e\u0432\u0430\u043d\u0438\u0435
p911
aV\u043c\u0435\u0442\u0430\u0444\u043e\u0440\u0430
p912
aV\u0432\u0437\u0430\u0438\u043c\u043e\u0434\u0435\u0439\u0441\u0442\u0432\u0438\u0435
p913
aV\u0434\u0435\u0439\u0441\u0442\u0432\u0438\u0435
p914
aV\u043a\u043e\u043d\u0442\u0435\u043a\u0441\u0442
p915
aV\u0433\u0440\u0430\u043d\u0438\u0446\u0430
p916
aV\u0438\u0441\u0441\u043b\u0435\u0434\u043e\u0432\u0430\u043d\u0438\u0435
p917
aV\u0441\u0443\u0431\u044a\u0435\u043a\u0442
p918
asVtopic_3
p919
(lp920
V\u043d\u0435\u0439\u0440\u043e\u043d
p921
aV\u0441\u0432\u044f\u0437\u044c
p922
aV\u0430\u0432\u0442\u043e\u043c\u043e\u0431\u0438\u043b\u044c
p923
aV\u0441\u0442\u0438\u043c\u0443\u043b
p924
aV\u0444\u0435\u043d\u043e\u043c\u0435\u043d
p925
aV\u043c\u043e\u043c\u0435\u043d\u0442
p926
aV\u0430\u043a\u0442\u0438\u0432\u043d\u043e\u0441\u0442\u044c
p927
aV\u0440\u0430\u0431\u043e\u0442\u043d\u0438\u043a
p928
aV\u0440\u0430\u0431\u043e\u0442\u0430
p929
aV\u0431\u043b\u043e\u043a
p930
aV\u043f\u0440\u043e\u0446\u0435\u0441\u0441
p931
aV\u043e\u0431\u043b\u0430\u0441\u0442\u044c
p932
aV\u0432\u044b\u043f\u043e\u043b\u043d\u0435\u043d\u0438\u0435
p933
aV\u0441\u0438\u043d\u0430\u043f\u0441
p934
aV\u0438\u0437\u043c\u0435\u043d\u0435\u043d\u0438\u0435
p935
asVtopic_2
p936
(lp937
V\u0432\u0430\u0440\u0438\u0430\u043d\u0442
p938
aV\u0440\u0430\u0441\u0430
p939
aV\u0446\u0435\u043b\u043e\u0435
p940
aV\u043b\u0438\u0446\u043e
p941
aV\u0438\u0434\u0435\u0430\u043b
p942
aV\u0447\u0435\u043b\u043e\u0432\u0435\u0447\u0435\u0441\u0442\u0432\u043e
p943
aV\u0441\u043f\u0440\u0430\u0432\u0435\u0434\u043b\u0438\u0432\u043e\u0441\u0442\u044c
p944
aV\u043f\u0440\u0438\u0437\u043d\u0430\u043a
p945
aV\u043f\u0440\u0435\u0434\u043f\u0440\u0438\u044f\u0442\u0438\u0435
p946
aV\u0438\u0434\u0435\u044f
p947
aV\u043a\u043e\u043c\u0438\u0441\u0441\u0438\u044f
p948
aV\u0430\u043a\u0446\u0435\u043d\u0442
p949
aV\u0434\u043e\u0441\u0442\u0438\u0436\u0435\u043d\u0438\u0435
p950
aV\u0442\u0438\u043f
p951
aV\u0440\u043e\u0431\u0435\u0440\u0442
p952
asVtopic_1
p953
(lp954
V\u0441\u0438\u0441\u0442\u0435\u043c\u0430
p955
aV\u0437\u0430\u0434\u0430\u0447\u0430
p956
aV\u043a\u043e\u043c\u043f\u044c\u044e\u0442\u0435\u0440
p957
aV\u043f\u0440\u043e\u0433\u0440\u0430\u043c\u043c\u0430
p958
aV\u043c\u0430\u0442\u0435\u043c\u0430\u0442\u0438\u043a\u0430
p959
aV\u043e\u0431\u043b\u0430\u0441\u0442\u044c
p960
aV\u043f\u0440\u043e\u0431\u043b\u0435\u043c\u0430
p961
aV\u0447\u0438\u0441\u043b\u043e
p962
aV\u0440\u0430\u0431\u043e\u0442\u0430
p963
aV\u043f\u043e\u0434\u0445\u043e\u0434
p964
aV\u043f\u0440\u043e\u0441\u0442\u043e\u0439
p965
aV\u043e\u0431\u0440\u0430\u0437
p966
aV\u0441\u043b\u043e\u0436\u043d\u043e\u0441\u0442\u044c
p967
aV\u0430\u043b\u0433\u043e\u0440\u0438\u0442\u043c
p968
aV\u043f\u043e\u043c\u043e\u0449\u044c
p969
asVtopic_0
p970
(lp971
V\u0442\u0435\u043b\u043e
p972
aV\u0441\u0430\u043c\u0435\u0446
p973
aV\u043f\u0442\u0438\u0446\u0430
p974
aV\u0441\u0430\u043c\u043a\u0430
p975
aV\u043c\u0438\u043a\u0440\u043e\u043e\u0440\u0433\u0430\u043d\u0438\u0437\u043c
p976
aV\u0441\u0438\u0433\u043d\u0430\u043b
p977
aV\u0448\u0438\u043c\u043f\u0430\u043d\u0437\u0435
p978
aV\u043f\u0440\u0438\u043c\u0430\u0442
p979
aV\u0432\u0438\u0434
p980
aV\u0440\u044b\u0431\u0430
p981
aV\u0433\u0440\u0443\u043f\u043f\u0430
p982
aV\u0434\u0438\u043d\u043e\u0437\u0430\u0432\u0440
p983
aV\u0431\u043e\u043b\u044c
p984
aV\u0435\u0432\u0440\u0435\u0439
p985
aV\u0437\u0434\u043e\u0440\u043e\u0432\u044c\u0435
p986
asVtopic_9
p987
(lp988
V\u0433\u0430\u043b\u0430\u043a\u0442\u0438\u043a\u0430
p989
aV\u0447\u0451\u0440\u043d\u044b\u0439_\u0434\u044b\u0440\u0430
p990
aV\u0437\u0432\u0435\u0437\u0434\u0430
p991
aV\u0434\u0438\u0441\u043a
p992
aV\u0433\u0430\u0437\u0430
p993
aV\u0441\u043a\u043e\u043f\u043b\u0435\u043d\u0438\u0435
p994
aV\u0433\u043e\u0440\u0438\u0437\u043e\u043d\u0442
p995
aV\u043e\u0431\u043b\u0430\u043a\u043e
p996
aV\u043d\u0435\u0431\u043e
p997
aV\u043e\u0431\u044a\u0435\u043a\u0442
p998
aV\u044d\u043d\u0435\u0440\u0433\u0438\u044f
p999
aV\u0441\u043a\u043e\u0440\u043e\u0441\u0442\u044c
p1000
aV\u043c\u0438\u043b\u043b\u0438\u0430\u0440\u0434
p1001
aV\u043f\u0440\u043e\u0446\u0435\u0441\u0441
p1002
aV\u0432\u0441\u0435\u043b\u0435\u043d\u043d\u0430\u044f
p1003
asVtopic_8
p1004
(lp1005
V\u043f\u0440\u043e\u0441\u0442\u0440\u0430\u043d\u0441\u0442\u0432\u043e
p1006
aV\u0442\u043e\u0447\u043a\u0430
p1007
aV\u0434\u0432\u0438\u0436\u0435\u043d\u0438\u0435
p1008
aV\u0438\u0437\u043c\u0435\u043d\u0435\u043d\u0438\u0435
p1009
aV\u0442\u043e\u0447\u043d\u043e\u0441\u0442\u044c
p1010
aV\u0438\u0437\u043c\u0435\u0440\u0435\u043d\u0438\u0435
p1011
aV\u043f\u0435\u0440\u0435\u0445\u043e\u0434
p1012
aV\u0447\u0430\u0441\u044b
p1013
aV\u043f\u043e\u043b\u043e\u0436\u0435\u043d\u0438\u0435
p1014
aV\u043f\u0440\u0435\u043e\u0431\u0440\u0430\u0437\u043e\u0432\u0430\u043d\u0438\u0435
p1015
aV\u0446\u0435\u043d\u0442\u0440
p1016
aV\u0447\u0438\u0441\u043b\u043e
p1017
aV\u043e\u043f\u0438\u0441\u0430\u043d\u0438\u0435
p1018
aV\u0432\u0438\u0434
p1019
aV\u043b\u0430\u043d\u0434\u0448\u0430\u0444\u0442
p1020
asVtopic_93
p1021
(lp1022
V\u043c\u0430\u0441\u0441\u0430
p1023
aV\u043f\u0430\u0440\u0430\u043c\u0435\u0442\u0440
p1024
aV\u0432\u0435\u0440\u043e\u044f\u0442\u043d\u043e\u0441\u0442\u044c
p1025
aV\u0440\u0430\u0441\u043f\u0440\u0435\u0434\u0435\u043b\u0435\u043d\u0438\u0435
p1026
aV\u043c\u0430\u0442\u0440\u0438\u0446\u0430
p1027
aV\u043f\u043e\u043a\u043e\u043b\u0435\u043d\u0438\u0435
p1028
aV\u0441\u0442\u043e\u0440\u043e\u043d\u0430
p1029
aV\u0441\u0442\u043e
p1030
aV\u043f\u0440\u043e\u0446\u0435\u0441\u0441
p1031
aV\u0440\u0430\u0434\u0438\u0443\u0441
p1032
aV\u043c\u0438\u043d\u0438\u043c\u0443\u043c
p1033
aV\u043d\u0435\u043e\u043f\u0440\u0435\u0434\u0435\u043b\u0451\u043d\u043d\u043e\u0441\u0442\u044c
p1034
aV\u043f\u0440\u043e\u0441\u0442\u043e\u0439
p1035
aV\u0440\u0435\u0437\u0443\u043b\u044c\u0442\u0430\u0442
p1036
aV\u043e\u0431\u043e\u043b\u043e\u0447\u043a\u0430
p1037
asVtopic_92
p1038
(lp1039
V\u043d\u0435\u0439\u0442\u0440\u043e\u043d\u043d\u044b\u0439_\u0437\u0432\u0435\u0437\u0434\u0430
p1040
aV\u043f\u043e\u0432\u0435\u0440\u0445\u043d\u043e\u0441\u0442\u044c
p1041
aV\u0443\u0440\u0430\u0432\u043d\u0435\u043d\u0438\u0435
p1042
aV\u0433\u0440\u0430\u0432\u0438\u0442\u0430\u0446\u0438\u044f
p1043
aV\u0432\u0435\u0449\u0435\u0441\u0442\u0432\u043e
p1044
aV\u0441\u043f\u0438\u043d
p1045
aV\u0438\u0437\u043b\u0443\u0447\u0435\u043d\u0438\u0435
p1046
aV\u043a\u043e\u043b\u0435\u0431\u0430\u043d\u0438\u0435
p1047
aV\u0441\u0432\u043e\u0439\u0441\u0442\u0432\u043e
p1048
aV\u0436\u0438\u0434\u043a\u043e\u0441\u0442\u044c
p1049
aV\u0447\u0430\u0441\u0442\u043e\u0442\u0430
p1050
aV\u0440\u0430\u0441\u0441\u0442\u043e\u044f\u043d\u0438\u0435
p1051
aV\u0433\u0430\u043c\u043c\u0430
p1052
aV\u0444\u0438\u0437\u0438\u043a
p1053
aV\u0434\u0440\u0443\u0433
p1054
asVtopic_91
p1055
(lp1056
V\u043f\u0440\u0430\u0432\u043e
p1057
aV\u0437\u0430\u043a\u043e\u043d
p1058
aV\u0444\u0443\u043d\u043a\u0446\u0438\u044f
p1059
aV\u0441\u0443\u0434
p1060
aV\u043b\u0438\u0446\u043e
p1061
aV\u044e\u0440\u0438\u0441\u0442
p1062
aV\u0432\u0435\u0449\u044c
p1063
aV\u0441\u0443\u0434\u044c\u044f
p1064
aV\u0432\u043e\u043f\u0440\u043e\u0441
p1065
aV\u0441\u0438\u0442\u0443\u0430\u0446\u0438\u044f
p1066
aV\u0442\u0438\u0440\u0430\u043d\u0438\u044f
p1067
aV\u0440\u0435\u0448\u0435\u043d\u0438\u0435
p1068
aV\u0434\u043e\u043c
p1069
aV\u043f\u043b\u0430\u0442\u043e\u043d
p1070
aV\u043f\u0440\u0430\u0432\u0438\u043b\u043e
p1071
asVtopic_90
p1072
(lp1073
V\u044d\u043b\u0435\u043a\u0442\u0440\u043e\u043d
p1074
aV\u044f\u0432\u043b\u0435\u043d\u0438\u0435
p1075
aV\u044d\u0444\u0444\u0435\u043a\u0442
p1076
aV\u043f\u043e\u043b\u044c
p1077
aV\u0441\u0438\u0441\u0442\u0435\u043c\u0430
p1078
aV\u043c\u0435\u0442\u0430\u043b\u043b
p1079
aV\u0442\u043e\u043a
p1080
aV\u0432\u0430\u043a\u0443\u0443\u043c
p1081
aV\u0441\u0432\u0435\u0440\u0445\u043f\u0440\u043e\u0432\u043e\u0434\u0438\u043c\u043e\u0441\u0442\u044c
p1082
aV\u043e\u0431\u0440\u0430\u0437
p1083
aV\u043c\u0430\u0433\u043d\u0438\u0442\u043d\u044b\u0439_\u043f\u043e\u043b
p1084
aV\u043c\u0430\u0433\u043d\u0438\u0442\u043d\u044b\u0439_\u043f\u043e\u043b\u044c
p1085
aV\u0441\u0432\u0435\u0440\u0445\u043f\u0440\u043e\u0432\u043e\u0434\u043d\u0438\u043a
p1086
aV\u043f\u043e\u0442\u0435\u043d\u0446\u0438\u0430\u043b
p1087
aV\u0442\u0435\u043e\u0440\u0438\u044f
p1088
asVtopic_97
p1089
(lp1090
V\u0434\u0440\u0443\u0433
p1091
aV\u0446\u0430\u0440\u044c
p1092
aV\u0432\u0438\u0434
p1093
aV\u043d\u0430\u0441\u0435\u043a\u043e\u043c\u043e\u0435
p1094
aV\u043e\u0431\u0440\u0430\u0437
p1095
aV\u0430\u0432\u0441\u0442\u0440\u0430\u043b\u0438\u044f
p1096
aV\u043e\u0446\u0435\u043d\u043a\u0430
p1097
aV\u043a\u043e\u043b\u044c\u0446\u043e
p1098
aV\u0441\u0442\u043e\u0440\u043e\u043d\u0430
p1099
aV\u043f\u0430\u0440\u0442\u043d\u0451\u0440
p1100
aV\u043d\u043e\u0432\u043e\u0435
p1101
aV\u0438\u0441\u043f\u044b\u0442\u0430\u043d\u0438\u0435
p1102
aV\u0441\u043b\u0443\u0447\u0430\u0439
p1103
aV\u0441\u0438\u0442\u0443\u0430\u0446\u0438\u044f
p1104
aV\u0441\u043e\u0441\u0435\u0434
p1105
asVtopic_96
p1106
(lp1107
V\u0434\u043d\u043a
p1108
aV\u043f\u043e\u0441\u043b\u0435\u0434\u043e\u0432\u0430\u0442\u0435\u043b\u044c\u043d\u043e\u0441\u0442\u044c
p1109
aV\u0433\u0435\u043d\u043e\u043c
p1110
aV\u0446\u0435\u043f\u043e\u0447\u043a\u0430
p1111
aV\u0441\u0442\u0440\u0443\u043a\u0442\u0443\u0440\u0430
p1112
aV\u043c\u043e\u043b\u0435\u043a\u0443\u043b\u0430_\u0434\u043d\u043a
p1113
aV\u0441\u043b\u0443\u0447\u0430\u0439\u043d\u043e\u0441\u0442\u044c
p1114
aV\u0440\u0435\u0437\u0443\u043b\u044c\u0442\u0430\u0442
p1115
aV\u043d\u0443\u043a\u043b\u0435\u043e\u0442\u0438\u0434
p1116
aV\u043a\u0440\u0438\u043a
p1117
aV\u044d\u043b\u0435\u043a\u0442\u0440\u043e\u043d\u0438\u043a\u0430
p1118
aV\u043e\u0448\u0438\u0431\u043a\u0430
p1119
aV\u0433\u0435\u043d\u0435\u0442\u0438\u0447\u0435\u0441\u043a\u0438\u0439_\u0438\u043d\u0444\u043e\u0440\u043c\u0430\u0446\u0438\u044f
p1120
aV\u0437\u043e\u043d\u0434
p1121
aV\u043a\u043e\u043d\u0435\u0446
p1122
asVtopic_95
p1123
(lp1124
V\u0448\u043a\u043e\u043b\u0430
p1125
aV\u043e\u0431\u0440\u0430\u0437\u043e\u0432\u0430\u043d\u0438\u0435
p1126
aV\u0442\u043e\u0447\u043a\u0430_\u0437\u0440\u0435\u043d\u0438\u0435
p1127
aV\u043f\u0440\u0435\u0434\u043c\u0435\u0442
p1128
aV\u043f\u0440\u043e\u0431\u043b\u0435\u043c\u0430
p1129
aV\u043a\u0440\u0438\u0442\u0435\u0440\u0438\u0439
p1130
aV\u0440\u0435\u0437\u0443\u043b\u044c\u0442\u0430\u0442
p1131
aV\u0440\u0430\u0431\u043e\u0442\u0430
p1132
aV\u043a\u043b\u0430\u0441\u0441
p1133
aV\u043e\u0431\u0443\u0447\u0435\u043d\u0438\u0435
p1134
aV\u043f\u043e\u0434\u0433\u043e\u0442\u043e\u0432\u043a\u0430
p1135
aV\u0443\u0440\u043e\u0432\u0435\u043d\u044c
p1136
aV\u0437\u043d\u0430\u043d\u0438\u0435
p1137
aV\u043a\u0430\u043d\u0442
p1138
aV\u0434\u0438\u0441\u0441\u0435\u0440\u0442\u0430\u0446\u0438\u044f
p1139
asVtopic_94
p1140
(lp1141
V\u0440\u0435\u0431\u0451\u043d\u043e\u043a
p1142
aV\u0441\u0435\u043c\u044c\u044f
p1143
aV\u0436\u0438\u0437\u043d\u044c
p1144
aV\u0440\u043e\u0434\u0438\u0442\u0435\u043b\u044c
p1145
aV\u0432\u0437\u0440\u043e\u0441\u043b\u044b\u0439
p1146
aV\u0440\u043e\u0436\u0434\u0435\u043d\u0438\u0435
p1147
aV\u0432\u043e\u0437\u0440\u0430\u0441\u0442
p1148
aV\u0438\u0441\u0441\u043b\u0435\u0434\u043e\u0432\u0430\u043d\u0438\u0435
p1149
aV\u0441\u043a\u0430\u0437\u043a\u0430
p1150
aV\u0434\u043e\u043c
p1151
aV\u043c\u0430\u043b\u044c\u0447\u0438\u043a
p1152
aV\u0436\u0435\u043d\u0430
p1153
aV\u043c\u0430\u043c\u0430
p1154
aV\u043f\u043e\u043c\u043e\u0449\u044c
p1155
aV\u0433\u0440\u0443\u043f\u043f\u0430
p1156
asVtopic_99
p1157
(lp1158
V\u0445\u0438\u043c\u0438\u044f
p1159
aV\u0431\u0438\u043e\u043b\u043e\u0433\u0438\u044f
p1160
aV\u044d\u043b\u0435\u043c\u0435\u043d\u0442
p1161
aV\u043c\u0443\u0437\u044b\u043a\u0430
p1162
aV\u0441\u0432\u044f\u0437\u044c
p1163
aV\u0436\u0438\u0437\u043d\u044c
p1164
aV\u0440\u0435\u0437\u0443\u043b\u044c\u0442\u0430\u0442
p1165
aV\u043f\u0440\u0438\u0440\u043e\u0434\u0430
p1166
aV\u0441\u0442\u0440\u043e\u0435\u043d\u0438\u0435
p1167
aV\u043d\u0430\u0443\u043a\u0430
p1168
aV\u043f\u0440\u0430\u0432\u044b\u0439
p1169
aV\u043d\u0435\u0439\u0440\u043e\u043d\u043d\u044b\u0439_\u0441\u0435\u0442\u044c
p1170
aV\u0444\u0438\u0437\u0438\u043a\u0430
p1171
aV\u043d\u0430\u043f\u0440\u0430\u0432\u043b\u0435\u043d\u0438\u0435
p1172
aV\u043f\u0440\u043e\u0441\u0442\u043e\u0439
p1173
asVtopic_98
p1174
(lp1175
V\u0440\u0435\u0448\u0435\u043d\u0438\u0435
p1176
aV\u043a\u043e\u043c\u043f\u0430\u043d\u0438\u044f
p1177
aV\u0440\u0435\u0437\u0443\u043b\u044c\u0442\u0430\u0442
p1178
aV\u043e\u043f\u0435\u0440\u0430\u0446\u0438\u044f
p1179
aV\u0446\u0435\u043b\u044c
p1180
aV\u0440\u0430\u0437\u0440\u0430\u0431\u043e\u0442\u043a\u0430
p1181
aV\u0442\u0435\u0441\u0442
p1182
aV\u043f\u0440\u043e\u0431\u043b\u0435\u043c\u0430
p1183
aV\u0443\u0441\u043b\u043e\u0432\u0438\u0435
p1184
aV\u0443\u0440\u043e\u0432\u0435\u043d\u044c
p1185
aV\u0441\u0440\u0435\u0434\u0441\u0442\u0432\u043e
p1186
aV\u0441\u043b\u0443\u0447\u0430\u0439
p1187
aV\u0431\u0435\u0437\u043e\u043f\u0430\u0441\u043d\u043e\u0441\u0442\u044c
p1188
aV\u043f\u0440\u043e\u0434\u0443\u043a\u0442
p1189
aV\u043c\u0435\u0445\u0430\u043d\u0438\u0437\u043c
p1190
asVtopic_31
p1191
(lp1192
V\u043e\u0431\u0449\u0435\u0441\u0442\u0432\u043e
p1193
aV\u0441\u0444\u0435\u0440\u0430
p1194
aV\u0440\u0435\u0441\u0443\u0440\u0441
p1195
aV\u043f\u0440\u043e\u0446\u0435\u0441\u0441
p1196
aV\u0432\u043e\u0437\u043c\u043e\u0436\u043d\u043e\u0441\u0442\u044c
p1197
aV\u0441\u0442\u043e\u0440\u043e\u043d\u0430
p1198
aV\u0442\u043e\u0447\u043a\u0430_\u0437\u0440\u0435\u043d\u0438\u0435
p1199
aV\u0440\u043e\u043b\u044c
p1200
aV\u0434\u0438\u0441\u043a\u0443\u0440\u0441
p1201
aV\u043d\u043e\u0432\u043e\u0435
p1202
aV\u0441\u043c\u044b\u0441\u043b
p1203
aV\u0438\u0437\u043c\u0435\u043d\u0435\u043d\u0438\u0435
p1204
aV\u0441\u0442\u0440\u0443\u043a\u0442\u0443\u0440\u0430
p1205
aV\u0441\u0438\u0442\u0443\u0430\u0446\u0438\u044f
p1206
aV\u043e\u0431\u0440\u0430\u0437
p1207
asVtopic_30
p1208
(lp1209
V\u0432\u043e\u043b\u043d\u0430
p1210
aV\u043d\u043e\u0433\u0430
p1211
aV\u043e\u0440\u0443\u0436\u0438\u0435
p1212
aV\u0440\u0443\u043a\u0430
p1213
aV\u043c\u044b\u0448\u0446\u0430
p1214
aV\u0440\u0430\u0441\u043f\u0440\u043e\u0441\u0442\u0440\u0430\u043d\u0435\u043d\u0438\u0435
p1215
aV\u0434\u0435\u043b\u0435\u043d\u0438\u0435
p1216
aV\u0442\u0438\u043d\u0433
p1217
aV\u043e\u043a\u0435\u0430\u043d
p1218
aV\u044f\u0432\u043b\u0435\u043d\u0438\u0435
p1219
aV\u0440\u0435\u0433\u0443\u043b\u044f\u0446\u0438\u044f
p1220
aV\u043c\u0435\u0441\u0442\u043e
p1221
aV\u0445\u0430\u043e\u0441
p1222
aV\u0434\u0432\u0438\u0436\u0435\u043d\u0438\u0435
p1223
aV\u0432\u0437\u0440\u044b\u0432
p1224
asVtopic_33
p1225
(lp1226
V\u043a\u0432\u0430\u0440\u043a
p1227
aV\u0447\u0430\u0441\u0442\u0438\u0446\u0430
p1228
aV\u0441\u0438\u043c\u043c\u0435\u0442\u0440\u0438\u044f
p1229
aV\u043f\u0440\u043e\u0442\u043e\u043d
p1230
aV\u044f\u0434\u0440\u043e
p1231
aV\u0441\u0442\u0430\u043d\u0434\u0430\u0440\u0442\u043d\u044b\u0439_\u043c\u043e\u0434\u0435\u043b\u044c
p1232
aV\u0432\u0437\u0430\u0438\u043c\u043e\u0434\u0435\u0439\u0441\u0442\u0432\u0438\u0435
p1233
aV\u0440\u0430\u0441\u043f\u0430\u0434
p1234
aV\u043d\u0435\u0439\u0442\u0440\u043e\u043d
p1235
aV\u043c\u0430\u0441\u0441\u0430
p1236
aV\u0430\u0434\u0440\u043e\u043d
p1237
aV\u044d\u043b\u0435\u043a\u0442\u0440\u043e\u043d
p1238
aV\u0442\u0435\u043e\u0440\u0438\u044f
p1239
aV\u043c\u0435\u0437\u043e\u043d
p1240
aV\u043b\u0435\u043f\u0442\u043e\u043d
p1241
asVtopic_32
p1242
(lp1243
V\u043a\u0443\u043b\u044c\u0442\u0443\u0440\u0430
p1244
aV\u0438\u0441\u043a\u0443\u0441\u0441\u0442\u0432\u043e
p1245
aV\u0444\u043e\u0440\u043c\u0430
p1246
aV\u043e\u0431\u0440\u0430\u0437
p1247
aV\u0444\u043e\u043b\u044c\u043a\u043b\u043e\u0440
p1248
aV\u044d\u043f\u043e\u0445\u0430
p1249
aV\u0446\u0435\u043d\u043d\u043e\u0441\u0442\u044c
p1250
aV\u0442\u043e\u043b\u0441\u0442\u043e\u0439
p1251
aV\u043c\u0430\u0441\u0441\u043e\u0432\u044b\u0439_\u043a\u0443\u043b\u044c\u0442\u0443\u0440\u0430
p1252
aV\u0444\u0435\u043d\u043e\u043c\u0435\u043d
p1253
aV\u0441\u043c\u044b\u0441\u043b
p1254
aV\u044f\u0432\u043b\u0435\u043d\u0438\u0435
p1255
aV\u0438\u0437\u0443\u0447\u0435\u043d\u0438\u0435
p1256
aV\u043f\u0438\u0441\u0430\u0442\u0435\u043b\u044c
p1257
aV\u043f\u0440\u043e\u0438\u0437\u0432\u0435\u0434\u0435\u043d\u0438\u0435
p1258
asVtopic_35
p1259
(lp1260
V\u043a\u043d\u0438\u0433\u0430
p1261
aV\u043c\u0435\u0442\u0440
p1262
aV\u0430\u0432\u0442\u043e\u0440
p1263
aV\u0433\u043b\u0430\u0432\u0430
p1264
aV\u0447\u0438\u0442\u0430\u0442\u0435\u043b\u044c
p1265
aV\u0432\u0437\u0433\u043b\u044f\u0434
p1266
aV\u043f\u043b\u0430\u0442\u0430
p1267
aV\u0440\u0430\u0431\u043e\u0442\u0430
p1268
aV\u0438\u0437\u0434\u0430\u043d\u0438\u0435
p1269
aV\u0438\u0437\u0434\u0430\u0442\u0435\u043b\u044c\u0441\u0442\u0432\u043e
p1270
aV\u043a\u043d\u0438\u0436\u043a\u0430
p1271
aV\u043e\u0431\u043b\u0430\u0441\u0442\u044c
p1272
aV\u0437\u043d\u0430\u043d\u0438\u0435
p1273
aV\u0432\u043e\u043f\u0440\u043e\u0441
p1274
aV\u0441\u043f\u0435\u0446\u0438\u0430\u043b\u0438\u0441\u0442
p1275
asVtopic_34
p1276
(lp1277
V\u0437\u0432\u0435\u0437\u0434\u0430
p1278
aV\u0441\u043e\u043b\u043d\u0446\u0435
p1279
aV\u0442\u0435\u043b\u0435\u0441\u043a\u043e\u043f
p1280
aV\u0430\u0441\u0442\u0440\u043e\u043d\u043e\u043c
p1281
aV\u043e\u0440\u0431\u0438\u0442\u0430
p1282
aV\u0441\u043f\u0443\u0442\u043d\u0438\u043a
p1283
aV\u043f\u043b\u0430\u043d\u0435\u0442\u0430
p1284
aV\u0440\u0430\u0441\u0441\u0442\u043e\u044f\u043d\u0438\u0435
p1285
aV\u0437\u0435\u043c\u043b\u044f
p1286
aV\u0441\u043e\u043b\u043d\u0435\u0447\u043d\u044b\u0439_\u0441\u0438\u0441\u0442\u0435\u043c\u0430
p1287
aV\u0432\u0435\u0449\u0435\u0441\u0442\u0432\u043e
p1288
aV\u043d\u0430\u0431\u043b\u044e\u0434\u0435\u043d\u0438\u0435
p1289
aV\u0442\u0435\u043b\u043e
p1290
aV\u043b\u0443\u043d\u0430
p1291
aV\u043c\u0430\u0441\u0441\u0430
p1292
asVtopic_37
p1293
(lp1294
V\u0442\u0435\u043a\u0441\u0442
p1295
aV\u0440\u0430\u0441\u0441\u043a\u0430\u0437
p1296
aV\u043f\u0435\u0440\u0435\u0432\u043e\u0434
p1297
aV\u043b\u0438\u0442\u0435\u0440\u0430\u0442\u0443\u0440\u0430
p1298
aV\u043f\u0440\u043e\u0438\u0437\u0432\u0435\u0434\u0435\u043d\u0438\u0435
p1299
aV\u043f\u0438\u0441\u044c\u043c\u043e
p1300
aV\u0440\u0443\u043a\u043e\u043f\u0438\u0441\u044c
p1301
aV\u0442\u0432\u043e\u0440\u0447\u0435\u0441\u0442\u0432\u043e
p1302
aV\u0441\u043c\u044b\u0441\u043b
p1303
aV\u0437\u0430\u043f\u0438\u0441\u044c
p1304
aV\u0441\u043e\u0447\u0438\u043d\u0435\u043d\u0438\u0435
p1305
aV\u0432\u0438\u0434
p1306
aV\u0447\u0430\u0441\u0442\u044c
p1307
aV\u043a\u043e\u043d\u0441\u0442\u0440\u0443\u043a\u0446\u0438\u044f
p1308
aV\u043a\u043e\u0440\u043f\u0443\u0441
p1309
asVtopic_36
p1310
(lp1311
V\u044d\u0432\u043e\u043b\u044e\u0446\u0438\u044f
p1312
aV\u0432\u0438\u0434
p1313
aV\u043c\u0438\u043b\u043b\u0438\u043e\u043d
p1314
aV\u0440\u0430\u0437\u0432\u0438\u0442\u0438\u0435
p1315
aV\u043e\u0431\u0435\u0437\u044c\u044f\u043d\u0430
p1316
aV\u0433\u0440\u0443\u043f\u043f\u0430
p1317
aV\u043f\u043e\u043f\u0443\u043b\u044f\u0446\u0438\u044f
p1318
aV\u0438\u0437\u043c\u0435\u043d\u0435\u043d\u0438\u0435
p1319
aV\u0444\u0430\u043a\u0442\u043e\u0440
p1320
aV\u0442\u044b\u0441\u044f\u0447\u0430
p1321
aV\u043f\u0440\u0438\u0437\u043d\u0430\u043a
p1322
aV\u0441\u043f\u043e\u0441\u043e\u0431\u043d\u043e\u0441\u0442\u044c
p1323
aV\u0444\u043e\u0440\u043c\u0430
p1324
aV\u043f\u0438\u0449\u0430
p1325
aV\u0440\u0435\u0437\u0443\u043b\u044c\u0442\u0430\u0442
p1326
asVtopic_39
p1327
(lp1328
V\u043f\u0440\u0435\u0434\u0441\u0442\u0430\u0432\u043b\u0435\u043d\u0438\u0435
p1329
aV\u043e\u043f\u0440\u0435\u0434\u0435\u043b\u0435\u043d\u0438\u0435
p1330
aV\u0447\u0430\u0441\u0442\u043d\u043e\u0441\u0442\u044c
p1331
aV\u043f\u0440\u0438\u0440\u043e\u0434\u0430
p1332
aV\u0444\u0430\u043a\u0442
p1333
aV\u043f\u043e\u043d\u0438\u043c\u0430\u043d\u0438\u0435
p1334
aV\u0438\u0434\u0435\u044f
p1335
aV\u043e\u0442\u043b\u0438\u0447\u0438\u0435
p1336
aV\u0432\u0437\u0433\u043b\u044f\u0434
p1337
aV\u043f\u0440\u0438\u0447\u0438\u043d\u0430
p1338
aV\u043e\u043f\u0438\u0441\u0430\u043d\u0438\u0435
p1339
aV\u043c\u043d\u043e\u0436\u0435\u0441\u0442\u0432\u043e
p1340
aV\u0445\u0430\u0440\u0430\u043a\u0442\u0435\u0440
p1341
aV\u043e\u0431\u044a\u044f\u0441\u043d\u0435\u043d\u0438\u0435
p1342
aV\u043e\u0441\u043d\u043e\u0432\u0430
p1343
asVtopic_38
p1344
(lp1345
V\u0441\u0442\u0440\u0430\u0442\u0435\u0433\u0438\u044f
p1346
aV\u0434\u0435\u0439\u0441\u0442\u0432\u0438\u0435
p1347
aV\u0443\u0447\u0430\u0441\u0442\u043d\u0438\u043a
p1348
aV\u0443\u0441\u043b\u043e\u0432\u0438\u0435
p1349
aV\u0441\u0438\u0442\u0443\u0430\u0446\u0438\u044f
p1350
aV\u0442\u0440\u0443\u0434\u043d\u043e\u0441\u0442\u044c
p1351
aV\u0446\u0435\u043b\u044c
p1352
aV\u0445\u043e\u0434
p1353
aV\u0441\u043b\u0443\u0447\u0430\u0439
p1354
aV\u0443\u0433\u0440\u043e\u0437\u0430
p1355
aV\u0432\u043e\u0437\u043c\u043e\u0436\u043d\u043e\u0441\u0442\u044c
p1356
aV\u0438\u0433\u0440\u043e\u043a
p1357
aV\u043f\u0440\u0438\u0447\u0438\u043d\u0430
p1358
aV\u043f\u0440\u0435\u0441\u0442\u0443\u043f\u043b\u0435\u043d\u0438\u0435
p1359
aV\u043e\u0442\u0432\u0435\u0442
p1360
asVtopic_44
p1361
(lp1362
V\u0441\u043e\u0446\u0438\u043e\u043b\u043e\u0433\u0438\u044f
p1363
aV\u0441\u043e\u0446\u0438\u043e\u043b\u043e\u0433
p1364
aV\u0434\u0438\u0441\u0446\u0438\u043f\u043b\u0438\u043d\u0430
p1365
aV\u043a\u0443\u0440\u0441
p1366
aV\u043f\u043e\u0437\u0438\u0446\u0438\u044f
p1367
aV\u0440\u0443\u0431\u043b\u044c
p1368
aV\u043f\u0440\u0430\u0432\u0438\u043b\u043e
p1369
aV\u0444\u0435\u043d\u043e\u043c\u0435\u043d
p1370
aV\u0440\u0430\u0431\u043e\u0442\u0430
p1371
aV\u0440\u0435\u0430\u043b\u044c\u043d\u043e\u0441\u0442\u044c
p1372
aV\u043f\u0440\u0435\u0434\u0435\u043b
p1373
aV\u0438\u043d\u0434\u0438\u0432\u0438\u0434
p1374
aV\u0430\u0433\u0435\u043d\u0442
p1375
aV\u0432\u0437\u0430\u0438\u043c\u043e\u0434\u0435\u0439\u0441\u0442\u0432\u0438\u0435
p1376
aV\u043c\u0435\u0442\u0440\u043e
p1377
asVtopic_45
p1378
(lp1379
V\u0433\u0435\u0440\u043e\u0439
p1380
aV\u043f\u043e\u044d\u0442
p1381
aV\u0436\u0438\u0437\u043d\u044c
p1382
aV\u043c\u0430\u0442\u0435\u0440\u044c
p1383
aV\u0441\u044e\u0436\u0435\u0442
p1384
aV\u043f\u0440\u0438\u0451\u043c
p1385
aV\u043f\u043e\u044d\u0437\u0438\u044f
p1386
aV\u0434\u043e\u0447\u044c
p1387
aV\u043e\u0442\u043d\u043e\u0448\u0435\u043d\u0438\u0435
p1388
aV\u043e\u0442\u0435\u0446
p1389
aV\u043c\u0430\u0442\u044c
p1390
aV\u043d\u0443\u043b\u044c
p1391
aV\u0435\u0434\u0430
p1392
aV\u0440\u0430\u0437\u0433\u043e\u0432\u043e\u0440
p1393
aV\u043b\u0438\u0446\u043e
p1394
asVtopic_46
p1395
(lp1396
V\u043c\u043e\u0434\u0435\u043b\u044c
p1397
aV\u0437\u043d\u0430\u0447\u0435\u043d\u0438\u0435
p1398
aV\u0440\u0435\u0437\u0443\u043b\u044c\u0442\u0430\u0442
p1399
aV\u043f\u0440\u0430\u0432\u0438\u043b\u043e
p1400
aV\u043a\u0430\u0447\u0435\u0441\u0442\u0432\u043e
p1401
aV\u0438\u0441\u0441\u043b\u0435\u0434\u043e\u0432\u0430\u043d\u0438\u0435
p1402
aV\u0441\u043b\u0443\u0447\u0430\u0439
p1403
aV\u0433\u0440\u0443\u043f\u043f\u0430
p1404
aV\u044d\u0444\u0444\u0435\u043a\u0442
p1405
aV\u0430\u043d\u0430\u043b\u0438\u0437
p1406
aV\u043f\u0440\u043e\u0441\u0442\u043e\u0439
p1407
aV\u043e\u0446\u0435\u043d\u043a\u0430
p1408
aV\u043a\u043e\u043b\u0438\u0447\u0435\u0441\u0442\u0432\u043e
p1409
aV\u0442\u0438\u043f
p1410
aV\u0432\u0438\u0434
p1411
asVtopic_47
p1412
(lp1413
V\u0438\u0441\u0442\u043e\u0440\u0438\u044f
p1414
aV\u0438\u0441\u0442\u043e\u0440\u0438\u043a
p1415
aV\u043f\u0440\u043e\u0448\u043b\u043e\u0435
p1416
aV\u0438\u0441\u0442\u043e\u0447\u043d\u0438\u043a
p1417
aV\u043f\u0435\u0440\u0438\u043e\u0434
p1418
aV\u0432\u043e\u043f\u0440\u043e\u0441
p1419
aV\u0430\u0440\u0445\u0438\u0432
p1420
aV\u043d\u043e\u0432\u043e\u0435
p1421
aV\u0444\u0430\u043a\u0442
p1422
aV\u0432\u0435\u043b\u0438\u043a\u043e\u0435
p1423
aV\u044d\u043f\u043e\u0445\u0430
p1424
aV\u043f\u043b\u0430\u043d
p1425
aV\u0442\u0440\u0443\u0434
p1426
aV\u0430\u0432\u0442\u043e\u0440\u0438\u0442\u0435\u0442
p1427
aV\u0434\u0440\u0435\u0432\u043d\u043e\u0441\u0442\u044c
p1428
asVtopic_40
p1429
(lp1430
V\u0431\u043e\u0433
p1431
aV\u043c\u0438\u0444
p1432
aV\u043f\u0440\u0435\u0434\u0441\u0442\u0430\u0432\u043b\u0435\u043d\u0438\u0435
p1433
aV\u0442\u0435\u043b\u043e
p1434
aV\u043f\u0440\u0438\u0440\u043e\u0434\u0430
p1435
aV\u043a\u0430\u0440\u0442\u0438\u043d\u0430
p1436
aV\u0434\u0435\u043a\u0430\u0440\u0442
p1437
aV\u0441\u0443\u0449\u043d\u043e\u0441\u0442\u044c
p1438
aV\u0434\u0432\u0438\u0436\u0435\u043d\u0438\u0435
p1439
aV\u0441\u0440\u0435\u0434\u043d\u0435\u0432\u0435\u043a\u043e\u0432\u044c\u0435
p1440
aV\u043c\u0438\u0444\u043e\u043b\u043e\u0433\u0438\u044f
p1441
aV\u0442\u0440\u0443\u0434
p1442
aV\u043f\u0440\u0438\u043d\u0446\u0438\u043f
p1443
aV\u0442\u0440\u0430\u043a\u0442\u0430\u0442
p1444
aV\u0432\u0438\u0434
p1445
asVtopic_41
p1446
(lp1447
V\u0433\u043e\u0441\u0443\u0434\u0430\u0440\u0441\u0442\u0432\u043e
p1448
aV\u0443\u043d\u0438\u0432\u0435\u0440\u0441\u0438\u0442\u0435\u0442
p1449
aV\u0441\u0438\u0441\u0442\u0435\u043c\u0430
p1450
aV\u043f\u0440\u043e\u0444\u0435\u0441\u0441\u043e\u0440
p1451
aV\u0446\u0438\u0432\u0438\u043b\u0438\u0437\u0430\u0446\u0438\u044f
p1452
aV\u043f\u0440\u0430\u0437\u0434\u043d\u0438\u043a
p1453
aV\u0446\u0435\u0440\u043a\u043e\u0432\u044c
p1454
aV\u043f\u0430\u043f\u0430
p1455
aV\u0447\u0438\u043d\u043e\u0432\u043d\u0438\u043a
p1456
aV\u0443\u043a\u0440\u0430\u0438\u043d\u0430
p1457
aV\u0441\u0432\u044f\u0437\u044c
p1458
aV\u0440\u043e\u0441\u0441\u0438\u044f
p1459
aV\u043d\u043e\u0432\u043e\u0435
p1460
aV\u0435\u0434\u0438\u043d\u0441\u0442\u0432\u043e
p1461
aV\u0440\u0430\u0437\u0432\u0438\u0442\u0438\u0435
p1462
asVtopic_42
p1463
(lp1464
V\u043c\u044b\u0448\u043b\u0435\u043d\u0438\u0435
p1465
aV\u0432\u043e\u043f\u0440\u043e\u0441
p1466
aV\u0432\u043d\u0438\u043c\u0430\u043d\u0438\u0435
p1467
aV\u043f\u0440\u043e\u0431\u043b\u0435\u043c\u0430
p1468
aV\u043f\u0441\u0438\u0445\u043e\u043b\u043e\u0433\u0438\u044f
p1469
aV\u0437\u0430\u0434\u0430\u0447\u0430
p1470
aV\u0443\u0442\u0432\u0435\u0440\u0436\u0434\u0435\u043d\u0438\u0435
p1471
aV\u043f\u0441\u0438\u0445\u043e\u043b\u043e\u0433
p1472
aV\u0430\u0441\u043f\u0435\u043a\u0442
p1473
aV\u043f\u043e\u0437\u043d\u0430\u043d\u0438\u0435
p1474
aV\u0441\u043f\u043e\u0441\u043e\u0431\u043d\u043e\u0441\u0442\u044c
p1475
aV\u0441\u0442\u043e\u0440\u043e\u043d\u0430
p1476
aV\u043e\u043f\u044b\u0442
p1477
aV\u043f\u0440\u043e\u0446\u0435\u0441\u0441
p1478
aV\u0432\u044b\u0432\u043e\u0434
p1479
asVtopic_43
p1480
(lp1481
V\u043c\u043e\u0437\u0433
p1482
aV\u043f\u043e\u0432\u0435\u0434\u0435\u043d\u0438\u0435
p1483
aV\u0441\u043e\u0437\u043d\u0430\u043d\u0438\u0435
p1484
aV\u0434\u0435\u0439\u0441\u0442\u0432\u0438\u0435
p1485
aV\u0432\u043e\u0441\u043f\u0440\u0438\u044f\u0442\u0438\u0435
p1486
aV\u0436\u0435\u0441\u0442
p1487
aV\u0430\u043a\u0442\u0438\u0432\u043d\u043e\u0441\u0442\u044c
p1488
aV\u043d\u0435\u0440\u0432\u043d\u044b\u0439_\u043a\u043b\u0435\u0442\u043a\u0430
p1489
aV\u044d\u043a\u0441\u043f\u0435\u0440\u0438\u043c\u0435\u043d\u0442
p1490
aV\u0441\u043f\u043e\u0441\u043e\u0431\u043d\u043e\u0441\u0442\u044c
p1491
aV\u0440\u0435\u0430\u043a\u0446\u0438\u044f
p1492
aV\u043e\u0431\u0443\u0447\u0435\u043d\u0438\u0435
p1493
aV\u043f\u043e\u043d\u0438\u043c\u0430\u043d\u0438\u0435
p1494
aV\u0438\u0441\u0441\u043b\u0435\u0434\u043e\u0432\u0430\u043d\u0438\u0435
p1495
aV\u0441\u0438\u0442\u0443\u0430\u0446\u0438\u044f
p1496
asVtopic_48
p1497
(lp1498
V\u044f\u0437\u044b\u043a
p1499
aV\u043b\u0438\u043d\u0433\u0432\u0438\u0441\u0442
p1500
aV\u0432\u043e\u043f\u0440\u043e\u0441
p1501
aV\u0441\u043b\u043e\u0432\u043e
p1502
aV\u043d\u0430\u0437\u0432\u0430\u043d\u0438\u0435
p1503
aV\u043e\u0431\u0440\u0430\u0437
p1504
aV\u0438\u043c\u044f
p1505
aV\u0447\u0438\u0441\u043b\u043e
p1506
aV\u0447\u0430\u0441\u0442\u043d\u043e\u0441\u0442\u044c
p1507
aV\u0432\u0438\u0434
p1508
aV\u0440\u0430\u0431\u043e\u0442\u0430
p1509
aV\u0442\u043e\u0447\u043a\u0430_\u0437\u0440\u0435\u043d\u0438\u0435
p1510
aV\u0440\u0443\u0441\u0441\u043a\u0438\u0439_\u044f\u0437\u044b\u043a
p1511
aV\u0437\u043d\u0430\u043d\u0438\u0435
p1512
aV\u0441\u0442\u043e\u0440\u043e\u043d\u0430
p1513
asVtopic_49
p1514
(lp1515
V\u0438\u0433\u0440\u0430
p1516
aV\u0440\u043e\u043b\u044c
p1517
aV\u0437\u0430\u043d\u044f\u0442\u0438\u0435
p1518
aV\u0442\u0435\u0430\u0442\u0440
p1519
aV\u0432\u043e\u043f\u0440\u043e\u0441
p1520
aV\u0441\u0438\u0442\u0443\u0430\u0446\u0438\u044f
p1521
aV\u043a\u0430\u043d\u0434\u0438\u0434\u0430\u0442
p1522
aV\u0434\u043e\u0432\u0435\u0440\u0438\u0435
p1523
aV\u0434\u0440\u0443\u0433
p1524
aV\u0443\u0447\u0430\u0441\u0442\u043d\u0438\u043a
p1525
aV\u0441\u043e\u0446\u0438\u0430\u043b\u044c\u043d\u044b\u0439_\u0436\u0438\u0437\u043d\u044c
p1526
aV\u043e\u0431\u0440\u0430\u0437
p1527
aV\u043f\u0430\u0440\u0430\u0434\u043e\u043a\u0441
p1528
aV\u0442\u0435\u043c\u0430
p1529
aV\u0430\u043a\u0442\u0451\u0440
p1530
asVtopic_57
p1531
(lp1532
V\u043e\u0442\u043d\u043e\u0448\u0435\u043d\u0438\u0435
p1533
aV\u043e\u0431\u0440\u0430\u0437
p1534
aV\u0434\u0435\u0439\u0441\u0442\u0432\u0438\u0435
p1535
aV\u0441\u0442\u043e\u0440\u043e\u043d\u0430
p1536
aV\u0432\u043e\u043f\u0440\u043e\u0441
p1537
aV\u0441\u043b\u0443\u0447\u0430\u0439
p1538
aV\u0438\u043c\u044f
p1539
aV\u043f\u0440\u0438\u043c\u0435\u0440
p1540
aV\u043c\u0435\u0441\u0442\u043e
p1541
aV\u0441\u043c\u044b\u0441\u043b
p1542
aV\u0434\u0440\u0443\u0433
p1543
aV\u043f\u0440\u043e\u0431\u043b\u0435\u043c\u0430
p1544
aV\u0441\u0438\u0442\u0443\u0430\u0446\u0438\u044f
p1545
aV\u0432\u0438\u0434
p1546
aV\u0438\u0434\u0435\u044f
p1547
asVtopic_56
p1548
(lp1549
V\u0432\u0441\u0435\u043b\u0435\u043d\u043d\u0430\u044f
p1550
aV\u043c\u0430\u0442\u0435\u0440\u0438\u044f
p1551
aV\u043d\u0430\u0431\u043b\u044e\u0434\u0435\u043d\u0438\u0435
p1552
aV\u0442\u0435\u043e\u0440\u0438\u044f
p1553
aV\u0432\u0435\u0449\u0435\u0441\u0442\u0432\u043e
p1554
aV\u043c\u043e\u043c\u0435\u043d\u0442
p1555
aV\u043c\u0430\u0441\u0448\u0442\u0430\u0431
p1556
aV\u0433\u0435\u043e\u043c\u0435\u0442\u0440\u0438\u044f
p1557
aV\u043a\u043e\u0441\u043c\u043e\u043b\u043e\u0433\u0438\u044f
p1558
aV\u0441\u0443\u0449\u0435\u0441\u0442\u0432\u043e\u0432\u0430\u043d\u0438\u0435
p1559
aV\u0440\u0435\u0437\u0443\u043b\u044c\u0442\u0430\u0442
p1560
aV\u043f\u043b\u043e\u0442\u043d\u043e\u0441\u0442\u044c
p1561
aV\u0441\u0442\u0440\u0443\u043a\u0442\u0443\u0440\u0430
p1562
aV\u0444\u043b\u0443\u043a\u0442\u0443\u0430\u0446\u0438\u044f
p1563
aV\u043a\u0440\u0438\u0432\u0430\u044f
p1564
asVtopic_55
p1565
(lp1566
V\u043e\u0431\u044a\u0435\u043a\u0442
p1567
aV\u0433\u0430\u043b\u0430\u043a\u0442\u0438\u043a\u0430
p1568
aV\u043c\u0430\u0441\u0441\u0430
p1569
aV\u0447\u0451\u0440\u043d\u044b\u0439_\u0434\u044b\u0440\u0430
p1570
aV\u0446\u0435\u043d\u0442\u0440
p1571
aV\u043d\u0435\u0431\u043e
p1572
aV\u043c\u0438\u043b\u043b\u0438\u0430\u0440\u0434
p1573
aV\u0434\u0438\u0441\u043a
p1574
aV\u0441\u043a\u043e\u043f\u043b\u0435\u043d\u0438\u0435
p1575
aV\u0433\u0430\u0437\u0430
p1576
aV\u043c\u0438\u043b\u043b\u0438\u043e\u043d
p1577
aV\u0433\u043e\u0440\u0438\u0437\u043e\u043d\u0442
p1578
aV\u043f\u0440\u043e\u0446\u0435\u0441\u0441
p1579
aV\u043c\u0435\u0441\u0442\u043e
p1580
aV\u0440\u0435\u0437\u0443\u043b\u044c\u0442\u0430\u0442
p1581
asVtopic_54
p1582
(lp1583
V\u0433\u0435\u043d
p1584
aV\u043e\u0440\u0433\u0430\u043d\u0438\u0437\u043c
p1585
aV\u0431\u0430\u043a\u0442\u0435\u0440\u0438\u044f
p1586
aV\u043c\u0443\u0442\u0430\u0446\u0438\u044f
p1587
aV\u043a\u043b\u0435\u0442\u043a\u0430
p1588
aV\u0430\u043d\u0442\u0438\u0431\u0438\u043e\u0442\u0438\u043a
p1589
aV\u043f\u0440\u043e\u0446\u0435\u0441\u0441
p1590
aV\u0441\u0442\u0430\u0440\u0435\u043d\u0438\u0435
p1591
aV\u0441\u0442\u0432\u043e\u043b\u043e\u0432\u043e\u0439_\u043a\u043b\u0435\u0442\u043a\u0430
p1592
aV\u0436\u0438\u0437\u043d\u044c
p1593
aV\u043e\u0431\u0440\u0430\u0437
p1594
aV\u0438\u043c\u043c\u0443\u043d\u043d\u044b\u0439_\u0441\u0438\u0441\u0442\u0435\u043c\u0430
p1595
aV\u0431\u043e\u043b\u0435\u0437\u043d\u044c
p1596
aV\u043c\u0435\u0441\u0442\u043e
p1597
aV\u0432\u043e\u0437\u043c\u043e\u0436\u043d\u043e\u0441\u0442\u044c
p1598
asVtopic_53
p1599
(lp1600
V\u043b\u0435\u043a\u0446\u0438\u044f
p1601
aV\u0444\u0438\u043b\u043e\u0441\u043e\u0444\u0438\u044f
p1602
aV\u0444\u0438\u043b\u043e\u0441\u043e\u0444
p1603
aV\u043c\u0435\u0441\u0442\u043e
p1604
aV\u0440\u0443\u0431\u0440\u0438\u043a\u0430
p1605
aV\u0440\u0430\u0437\u043b\u0438\u0447\u043d\u044b\u0439_\u043f\u043b\u043e\u0449\u0430\u0434\u043a\u0430
p1606
aV\u0438\u043d\u0442\u0435\u0440\u0435\u0441\u043d\u044b\u0439_\u043b\u0435\u043a\u0446\u0438\u044f_\u0430\u0432\u0442\u043e\u0440_\u043f\u043e\u0441\u0442\u043d\u0430\u0443\u043a\u0430
p1607
aV\u043f\u0440\u0438\u0432\u044b\u0447\u043d\u044b\u0439_\u0444\u043e\u0440\u043c\u0430\u0442
p1608
aV\u0445\u043e\u0434_\u043b\u0435\u043a\u0446\u0438\u044f
p1609
aV\u043f\u043b\u0430\u0442\u043e\u043d
p1610
aV\u0430\u0440\u0438\u0441\u0442\u043e\u0442\u0435\u043b\u044c
p1611
aV\u043a\u0430\u043d\u0430\u043b
p1612
aV\u0441\u043f\u0435\u043a\u0442\u0440\u043e\u0441\u043a\u043e\u043f\u0438\u044f
p1613
aV\u044f\u0437\u044b\u043a\u043e\u0432\u043e\u0439_\u0441\u0435\u043c\u044c\u044f
p1614
aV\u0436\u0438\u0437\u043d\u044c
p1615
asVtopic_52
p1616
(lp1617
V\u0441\u043b\u043e\u0432\u043e
p1618
aV\u0441\u043b\u043e\u0432\u0430\u0440\u044c
p1619
aV\u0440\u0435\u0447\u044c
p1620
aV\u043f\u0440\u0435\u0434\u043b\u043e\u0436\u0435\u043d\u0438\u0435
p1621
aV\u0440\u0443\u0441\u0441\u043a\u0438\u0439_\u044f\u0437\u044b\u043a
p1622
aV\u0437\u043d\u0430\u0447\u0435\u043d\u0438\u0435
p1623
aV\u0444\u043e\u0440\u043c\u0430
p1624
aV\u0433\u043b\u0430\u0433\u043e\u043b
p1625
aV\u043f\u0440\u0430\u0432\u0438\u043b\u043e
p1626
aV\u0442\u0438\u043f
p1627
aV\u0441\u043c\u044b\u0441\u043b
p1628
aV\u043f\u0440\u0438\u043c\u0435\u0440
p1629
aV\u0432\u0438\u0434
p1630
aV\u0447\u0438\u0441\u043b\u043e
p1631
aV\u043e\u0431\u0440\u0430\u0437
p1632
asVtopic_51
p1633
(lp1634
V\u0430\u0442\u043e\u043c
p1635
aV\u0441\u0432\u0435\u0442
p1636
aV\u043f\u043e\u043c\u043e\u0449\u044c
p1637
aV\u043f\u0440\u0438\u0431\u043e\u0440
p1638
aV\u043f\u0435\u0440\u0441\u043f\u0435\u043a\u0442\u0438\u0432\u0430
p1639
aV\u0443\u0440\u043e\u0432\u0435\u043d\u044c
p1640
aV\u0443\u0441\u0442\u0440\u043e\u0439\u0441\u0442\u0432\u043e
p1641
aV\u043d\u0430\u043f\u0440\u0430\u0432\u043b\u0435\u043d\u0438\u0435
p1642
aV\u0441\u0442\u0440\u0443\u043a\u0442\u0443\u0440\u0430
p1643
aV\u0441\u043e\u0441\u0442\u043e\u044f\u043d\u0438\u0435
p1644
aV\u043b\u0430\u0431\u043e\u0440\u0430\u0442\u043e\u0440\u0438\u044f
p1645
aV\u043c\u0435\u0442\u043e\u0434\u0438\u043a\u0430
p1646
aV\u0432\u0435\u0449\u0435\u0441\u0442\u0432\u043e
p1647
aV\u043e\u0431\u043b\u0430\u0441\u0442\u044c
p1648
aV\u043f\u0440\u043e\u0431\u043b\u0435\u043c\u0430
p1649
asVtopic_50
p1650
(lp1651
V\u043c\u0435\u0434\u0438\u0446\u0438\u043d\u0430
p1652
aV\u0440\u043e\u0431\u043e\u0442
p1653
aV\u0437\u0430\u0431\u043e\u043b\u0435\u0432\u0430\u043d\u0438\u0435
p1654
aV\u043f\u0440\u0435\u043f\u0430\u0440\u0430\u0442
p1655
aV\u0431\u043e\u043b\u0435\u0437\u043d\u044c
p1656
aV\u0432\u0440\u0430\u0447
p1657
aV\u043d\u0430\u0440\u0443\u0448\u0435\u043d\u0438\u0435
p1658
aV\u043b\u0435\u043a\u0430\u0440\u0441\u0442\u0432\u043e
p1659
aV\u043b\u0435\u0447\u0435\u043d\u0438\u0435
p1660
aV\u0441\u0435\u0440\u0434\u0446\u0435
p1661
aV\u043f\u0430\u0446\u0438\u0435\u043d\u0442
p1662
aV\u043f\u0440\u043e\u0431\u043b\u0435\u043c\u0430
p1663
aV\u0438\u0441\u0441\u043b\u0435\u0434\u043e\u0432\u0430\u043d\u0438\u0435
p1664
aV\u043a\u043b\u0435\u0442\u043a\u0430
p1665
aV\u0441\u0438\u0441\u0442\u0435\u043c\u0430
p1666
asVtopic_59
p1667
(lp1668
V\u043f\u0430\u0446\u0438\u0435\u043d\u0442
p1669
aV\u0432\u0440\u0430\u0447
p1670
aV\u0431\u043e\u043b\u0435\u0437\u043d\u044c
p1671
aV\u0437\u0430\u0431\u043e\u043b\u0435\u0432\u0430\u043d\u0438\u0435
p1672
aV\u043f\u0440\u0435\u043f\u0430\u0440\u0430\u0442
p1673
aV\u043b\u0435\u0447\u0435\u043d\u0438\u0435
p1674
aV\u0440\u0430\u0437\u0432\u0438\u0442\u0438\u0435
p1675
aV\u043f\u0440\u043e\u0431\u043b\u0435\u043c\u0430
p1676
aV\u043c\u0435\u0434\u0438\u0446\u0438\u043d\u0430
p1677
aV\u043d\u0430\u0440\u0443\u0448\u0435\u043d\u0438\u0435
p1678
aV\u0440\u043e\u0431\u043e\u0442
p1679
aV\u0441\u043f\u0435\u0446\u0438\u0430\u043b\u0438\u0441\u0442
p1680
aV\u0430\u043b\u043a\u043e\u0433\u043e\u043b\u044c
p1681
aV\u0441\u043e\u0441\u0443\u0434
p1682
aV\u0441\u0435\u0440\u0434\u0446\u0435
p1683
asVtopic_58
p1684
(lp1685
V\u0441\u043f\u0435\u043a\u0442\u0440
p1686
aV\u0441\u043a\u043e\u0440\u043e\u0441\u0442\u044c
p1687
aV\u0442\u0435\u043c\u043f\u0435\u0440\u0430\u0442\u0443\u0440\u0430
p1688
aV\u043a\u0438\u043b\u043e\u043c\u0435\u0442\u0440
p1689
aV\u0433\u0440\u0430\u0434\u0443\u0441
p1690
aV\u0442\u044b\u0441\u044f\u0447\u0430
p1691
aV\u0433\u0430\u0437
p1692
aV\u043f\u043b\u043e\u0441\u043a\u043e\u0441\u0442\u044c
p1693
aV\u0441\u043e\u0441\u0442\u0430\u0432
p1694
aV\u0440\u0430\u0441\u0441\u0442\u043e\u044f\u043d\u0438\u0435
p1695
aV\u043b\u0438\u043d\u0438\u044f
p1696
aV\u043c\u0435\u0442\u0440
p1697
aV\u043f\u043e\u0442\u043e\u043a
p1698
aV\u0443\u0433\u043b\u0435\u0440\u043e\u0434
p1699
aV\u0441\u0432\u043e\u0439\u0441\u0442\u0432\u043e
p1700
as.